(dp1
V\u6181
I8583
sV\u8000
I1959
sV\u6785
I7049
sV\u8604
I3813
sV\u6d89
I3369
sV\u4f0a
I497
sV\u920c
I8551
sV\u9810
I1449
sV\u8599
I4098
sV\u4e9f
I6176
sV\u6d1e
I1159
sV\u7322
I6615
sV\u5aa7
I2973
sV\u7926
I5542
sV\u9da9
I6160
sV\u6cb3
I588
sV\u9136
I6573
sV\u5438
I3889
sV\u78bb
I8504
sV\u5a3c
I5161
sV\u8ac7
I949
sV\u53cd
I1761
sV\u724c
I5425
sV\u59d1
I2705
sV\u7850
I7040
sV\u7e54
I2554
sV\u8458
I8490
sV\u9060
I412
sV\u77e5
I38
sV\u9664
I1825
sV\u7de9
I1901
sV\u5f6a
I5005
sV\u83ed
I7832
sV\u89f1
I4056
sV\u6b72
I570
sV\u52f7
I7537
sV\u58fb
I3755
sV\u777a
I7644
sV\u9bfd
I5492
sV\u5eff
I5655
sV\u8986
I320
sV\u700b
I4897
sV\u528c
I6555
sV\u958e
I4628
sV\u5890
I7420
sV\u9b92
I4932
sV\u881b
I7370
sV\u6a9c
I3266
sV\u8e1f
I3063
sV\u5121
I6157
sV\u76a4
I3821
sV\u9a27
I4635
sV\u5d29
I3006
sV\u82ac
I2757
sV\u6f35
I4276
sV\u51b6
I1755
sV\u9abc
I6340
sV\u5dbe
I8218
sV\u8141
I6235
sV\u6fca
I8223
sV\u934d
I7677
sV\u564f
I7661
sV\u75ce
I7618
sV\u9951
I3389
sV\u5c53
I7268
sV\u9f55
I4198
sV\u6e5f
I5190
sV\u7463
I1995
sV\u93e2
I6052
sV\u56e4
I5703
sV\u5ce8
I3318
sV\u62ec
I5955
sV\u866f
I1993
sV\u68f0
I8503
sV\u8c73
I4702
sV\u4f75
I3066
sV\u6ef4
I1074
sV\u9277
I6652
sV\u5b7d
I4777
sV\u9e7f
I410
sV\u6081
I4773
sV\u6c89
I2802
sV\u8d08
I2005
sV\u4e0a
I61
sV\u728d
I6481
sV\u540e
I1428
sV\u7891
I2495
sV\u9910
I1108
sV\u5a12
I6639
sV\u7e95
I8613
sV\u6016
I5908
sV\u8499
I1215
sV\u90a1
I7162
sV\u55a3
I4016
sV\u96a5
I8278
sV\u5ba7
I8166
sV\u7826
I6920
sV\u61ab
I3926
sV\u67af
I2037
sV\u6db3
I5953
sV\u4f34
I91
sV\u73b7
I4733
sV\u9036
I3421
sV\u963a
I6949
sV\u7fbf
I5640
sV\u6744
I6923
sV\u91cb
I3040
sV\u52cd
I6402
sV\u58d1
I3904
sV\u7950
I4381
sV\u9dd3
I2543
sV\u5ed5
I4470
sV\u7f54
I2955
sV\u8558
I6260
sV\u6add
I7405
sV\u8b5c
I3694
sV\u76e5
I3518
sV\u5e6a
I6812
sV\u7076
I6689
sV\u59fb
I3796
sV\u9afd
I7437
sV\u5fff
I6217
sV\u6503
I4633
sV\u6b07
I6173
sV\u8e8a
I4201
sV\u7d13
I5729
sV\u8317
I2660
sV\u8f1f
I3247
sV\u5021
I1865
sV\u71a0
I4127
sV\u77a4
I7965
sV\u9b27
I3300
sV\u5c29
I6608
sV\u83ac
I6675
sV\u6831
I5077
sV\u89b0
I5746
sV\u7439
I6078
sV\u7a3d
I2564
sV\u62c2
I1378
sV\u68c6
I8298
sV\u8c49
I7096
sV\u514b
I2511
sV\u574f
I8033
sV\u9851
I7247
sV\u5d53
I4194
sV\u80d6
I6625
sV\u695b
I7208
sV\u86da
I6241
sV\u8cde
I1211
sV\u51e0
I3525
sV\u57e4
I6453
sV\u98e6
I8770
sV\u5de8
I3770
sV\u816b
I1595
sV\u876f
I8704
sV\u8d73
I7610
sV\u6ff4
I8547
sV\u6381
I6389
sV\u6585
I399
sV\u8404
I3787
sV\u8e08
I6149
sV\u900c
I7184
sV\u7b91
I3916
sV\u9a10
I8270
sV\u8799
I6885
sV\u93a1
I5170
sV\u95a5
I3616
sV\u7b26
I3721
sV\u62ab
I1849
sV\u872e
I7533
sV\u6eb3
I8548
sV\u8932
I7226
sV\u70b7
I1753
sV\u7abb
I4319
sV\u9f3e
I6490
sV\u6240
I1142
sV\u92cb
I4338
sV\u51cd
I1665
sV\u704c
I3186
sV\u7c54
I8747
sV\u67d9
I5627
sV\u4f5e
I4508
sV\u5162
I3370
sV\u7fe9
I1246
sV\u81ed
I3638
sV\u676e
I6220
sV\u4ef3
I8297
sV\u757a
I8324
sV\u5cff
I8268
sV\u7f7e
I2468
sV\u6603
I4384
sV\u8182
I6375
sV\u4e88
I3407
sV\u8d8a
I83
sV\u5c94
I7286
sV\u8017
I5329
sV\u6698
I3536
sV\u8a1b
I3223
sV\u5321
I3543
sV\u5f29
I2581
sV\u80ac
I7902
sV\u8ab0
I319
sV\u6d35
I5079
sV\u8cb4
I2595
sV\u7739
I6874
sV\u96b8
I2989
sV\u793d
I8750
sV\u98bc
I4328
sV\u61c2
I6088
sV\u6bc6
I6154
sV\u8f49
I310
sV\u524b
I5991
sV\u914d
I4588
sV\u9b51
I3861
sV\u9d55
I4494
sV\u83d6
I5192
sV\u6a5b
I4376
sV\u6c5f
I35
sV\u52e0
I7937
sV\u54e4
I7259
sV\u5ee8
I5708
sV\u826b
I3047
sV\u846f
I7914
sV\u8e73
I8429
sV\u9077
I665
sV\u76f8
I494
sV\u597d
I21
sV\u8300
I7498
sV\u6485
I7733
sV\u6e89
I5321
sV\u8f08
I5394
sV\u560e
I7728
sV\u7a91
I7071
sV\u9b10
I3291
sV\u7c95
I5404
sV\u6216
I2733
sV\u889d
I5895
sV\u57a3
I1691
sV\u9ea9
I7101
sV\u63ab
I5515
sV\u7c2a
I467
sV\u65af
I3203
sV\u6fb3
I8053
sV\u8832
I4110
sV\u943a
I2622
sV\u7dbf
I3382
sV\u714c
I3626
sV\u7b50
I4290
sV\u66d9
I1759
sV\u8758
I7623
sV\u895c
I3661
sV\u4e5e
I3304
sV\u72e1
I1443
sV\u9360
I7131
sV\u5a66
I1590
sV\u80ed
I2147
sV\u666e
I4606
sV\u8af1
I2669
sV\u4ff3
I6808
sV\u8cf5
I5086
sV\u96f9
I6532
sV\u747a
I6676
sV\u98fd
I2967
sV\u5dff
I6752
sV\u7e7e
I3014
sV\u6703
I190
sV\u6907
I8556
sV\u4f88
I4736
sV\u8c8a
I5255
sV\u300d
I5768
sV\u968e
I1223
sV\u5d94
I4560
sV\u8117
I4018
sV\u6798
I7066
sV\u8b1b
I3906
sV\u699c
I3152
sV\u73a0
I4692
sV\u9723
I7557
sV\u9927
I3211
sV\u5e29
I5181
sV\u7fa8
I423
sV\u6c35
I8713
sV\u5ebe
I1469
sV\u8445
I3583
sV\u8e49
I2289
sV\u6cca
I955
sV\u904d
I3146
sV\u554f
I769
sV\u76ce
I5291
sV\u6b5b
I2871
sV\u6d5f
I8631
sV\u7763
I4255
sV\u90e2
I3232
sV\u55e4
I3218
sV\u7967
I6456
sV\u9ae6
I3777
sV\u6bf0
I5162
sV\u9177
I3337
sV\u9d7f
I6926
sV\u6581
I7319
sV\u8204
I4695
sV\u8808
I8575
sV\u778d
I8000
sV\u9c10
I7824
sV\u5f12
I6918
sV\u7b95
I3384
sV\u6516
I7494
sV\u95a1
I5595
sV\u7722
I7716
sV\u5ea7
I609
sV\u64ab
I1871
sV\u68b3
I2021
sV\u76b7
I8511
sV\u7cbb
I7349
sV\u7abf
I6646
sV\u993e
I8373
sV\u80c3
I5403
sV\u6244
I8232
sV\u6848
I1361
sV\u92cf
I5614
sV\u5dd1
I5518
sV\u7c50
I5445
sV\u8058
I5205
sV\u8e5c
I7862
sV\u75e1
I7499
sV\u9460
I279
sV\u73e5
I3530
sV\u9264
I2044
sV\u79e9
I3390
sV\u87ed
I3987
sV\u616e
I799
sV\u8df1
I5628
sV\u56f7
I2602
sV\u7576
I721
sV\u5cfb
I1833
sV\u737a
I2646
sV\u8782
I5157
sV\u8b8a
I891
sV\u568c
I6416
sV\u918e
I6904
sV\u5c90
I894
sV\u8617
I4947
sV\u6e9c
I4315
sV\u8a1f
I3206
sV\u74a0
I4116
sV\u9023
I1199
sV\u5929
I158
sV\u78a8
I6309
sV\u672d
I3738
sV\u6d31
I7863
sV\u8cb0
I3541
sV\u4fb2
I8266
sV\u6b35
I3404
sV\u90b8
I4234
sV\u7f3d
I4469
sV\u9ebc
I6441
sV\u59be
I2257
sV\u67c2
I6998
sV\u8345
I3491
sV\u6dc6
I8132
sV\u6bca
I7941
sV\u524f
I3655
sV\u71ce
I1628
sV\u9d51
I4676
sV\u7fd2
I3012
sV\u85d6
I4910
sV\u6c5b
I6860
sV\u6a5f
I1015
sV\u7063
I3156
sV\u52e4
I1516
sV\u9de6
I2437
sV\u846b
I3333
sV\u66ec
I3373
sV\u826f
I543
sV\u6cf0
I3154
sV\u9677
I4002
sV\u5179
I6703
sV\u8500
I7750
sV\u8304
I6583
sV\u7a95
I3993
sV\u9b14
I8780
sV\u6416
I1325
sV\u621a
I866
sV\u8e9d
I7726
sV\u7622
I3126
sV\u5fa7
I1057
sV\u7c26
I4986
sV\u65ab
I1847
sV\u77b7
I7756
sV\u9436
I3295
sV\u7dbb
I818
sV\u5f3c
I6457
sV\u6344
I8618
sV\u95cb
I3879
sV\u7d50
I167
sV\u7b54
I3310
sV\u60d9
I7103
sV\u8f5c
I7307
sV\u5662
I6591
sV\u72e5
I5816
sV\u9364
I3532
sV\u5a6a
I5977
sV\u86ed
I4527
sV\u6e72
I974
sV\u8af5
I7242
sV\u57f7
I3077
sV\u7476
I8682
sV\u9efd
I5102
sV\u787e
I3296
sV\u750b
I7877
sV\u578c
I5688
sV\u7913
I5759
sV\u9e92
I2667
sV\u6198
I7593
sV\u8d1b
I5456
sV\u8b1f
I6819
sV\u9123
I5958
sV\u5225
I911
sV\u79a8
I7213
sV\u662d
I731
sV\u87ac
I3794
sV\u6a35
I964
sV\u7039
I6549
sV\u7e3d
I599
sV\u58be
I4718
sV\u8245
I6833
sV\u4f47
I1597
sV\u6cc6
I7489
sV\u8849
I7998
sV\u964d
I592
sV\u9a55
I1877
sV\u84d6
I8307
sV\u6d5b
I7149
sV\u4fdc
I4675
sV\u6b5f
I4558
sV\u96e2
I177
sV\u53e4
I52
sV\u59e8
I4306
sV\u9aea
I5164
sV\u67ec
I7836
sV\u6df0
I4697
sV\u9777
I7207
sV\u5e7d
I1068
sV\u7ffc
I585
sV\u8600
I5658
sV\u8004
I3957
sV\u6b89
I4799
sV\u8a08
I394
sV\u7f91
I6553
sV\u9e10
I5872
sV\u5d12
I5527
sV\u7995
I8018
sV\u9814
I8122
sV\u4e9b
I3372
sV\u611a
I1673
sV\u52a3
I2630
sV\u7522
I3935
sV\u91a5
I6455
sV\u5ca7
I4166
sV\u66ab
I882
sV\u792a
I2441
sV\u4e30
I4886
sV\u6ab3
I4044
sV\u9736
I4042
sV\u5238
I2882
sV\u5c3c
I4601
sV\u6640
I6722
sV\u6044
I6189
sV\u8cc7
I2392
sV\u6a48
I2180
sV\u96cb
I3776
sV\u55cd
I8702
sV\u7e50
I4663
sV\u9ad3
I2647
sV\u8258
I3792
sV\u6ddd
I6525
sV\u71e5
I3597
sV\u5f66
I8135
sV\u7be9
I5388
sV\u596a
I2526
sV\u636e
I5849
sV\u89f5
I4145
sV\u93f9
I7112
sV\u5efb
I4582
sV\u9dfd
I8619
sV\u6203
I5127
sV\u898a
I6024
sV\u548c
I940
sV\u700f
I7440
sV\u9d92
I2172
sV\u6298
I508
sV\u881f
I2208
sV\u76a0
I7910
sV\u6f31
I2343
sV\u8eb0
I8540
sV\u6935
I7059
sV\u88b4
I3774
sV\u51ba
I8325
sV\u65c2
I4303
sV\u6fc6
I3445
sV\u8b49
I288
sV\u69ca
I5116
sV\u504f
I726
sV\u73ce
I8729
sV\u7dd2
I2091
sV\u9955
I3578
sV\u87d6
I8718
sV\u6e5b
I1935
sV\u81da
I6789
sV\u56e0
I661
sV\u95e2
I3349
sV\u7c67
I8751
sV\u866b
I5237
sV\u99ea
I6414
sV\u64ec
I475
sV\u806f
I1791
sV\u8a73
I5438
sV\u9477
I3245
sV\u5379
I6298
sV\u72f8
I4793
sV\u5d7d
I6313
sV\u8700
I2098
sV\u6085
I1879
sV\u6a89
I3212
sV\u520e
I6551
sV\u7e91
I5981
sV\u9f10
I5661
sV\u7895
I3866
sV\u9914
I2340
sV\u8299
I2680
sV\u4f9b
I2740
sV\u8c9d
I2657
sV\u6a1e
I4682
sV\u7422
I3173
sV\u5da7
I6218
sV\u61af
I7248
sV\u4f30
I4920
sV\u6bb3
I6358
sV\u79bf
I3736
sV\u9a3e
I3527
sV\u6144
I3393
sV\u6b48
I5643
sV\u97cb
I673
sV\u754c
I1229
sV\u91cf
I822
sV\u7f50
I7028
sV\u58d5
I5144
sV\u7954
I6482
sV\u62d9
I596
sV\u6cdd
I2524
sV\u76e1
I232
sV\u9760
I6533
sV\u5462
I6891
sV\u9164
I4055
sV\u6c72
I1029
sV\u55f7
I4274
sV\u5ffb
I3388
sV\u707a
I2291
sV\u59ff
I1713
sV\u7a7e
I7625
sV\u6303
I7161
sV\u8482
I2931
sV\u770b
I215
sV\u558c
I5305
sV\u5f90
I1489
sV\u7b13
I7810
sV\u8517
I4928
sV\u6398
I5030
sV\u77a0
I8184
sV\u5025
I7273
sV\u9d27
I8589
sV\u5a29
I5087
sV\u642d
I2152
sV\u8fb0
I1817
sV\u56b6
I5239
sV\u7239
I7187
sV\u50ba
I8615
sV\u7c3d
I5352
sV\u9dbc
I2702
sV\u5abe
I6862
sV\u64c2
I7878
sV\u574b
I5906
sV\u68ca
I361
sV\u72ce
I604
sV\u7cd2
I8492
sV\u6557
I281
sV\u6f5b
I1327
sV\u80da
I3803
sV\u9ee6
I7128
sV\u5be8
I3264
sV\u98ea
I8339
sV\u65ec
I1520
sV\u816f
I7667
sV\u9577
I188
sV\u7dfc
I4368
sV\u8800
I7971
sV\u5d0e
I3548
sV\u9010
I1536
sV\u8d99
I2645
sV\u6f1a
I3969
sV\u5ca3
I7388
sV\u7126
I631
sV\u95a9
I4237
sV\u68ab
I4878
sV\u6eaf
I6840
sV\u8332
I2583
sV\u5c38
I3762
sV\u523c
I6009
sV\u76bf
I8781
sV\u6840
I2920
sV\u8cc3
I5316
sV\u6e44
I4182
sV\u98cb
I5671
sV\u9ecf
I2225
sV\u51d1
I5318
sV\u6dd9
I4386
sV\u4f5a
I5823
sV\u7fe5
I1082
sV\u9468
I8187
sV\u576a
I5177
sV\u6d6e
I1230
sV\u6372
I2631
sV\u7976
I7851
sV\u9df9
I1137
sV\u50fb
I2010
sV\u93fd
I6757
sV\u56ff
I2527
sV\u6c03
I6966
sV\u6207
I5379
sV\u8a17
I1383
sV\u74a8
I3606
sV\u6735
I2804
sV\u86b4
I7815
sV\u7d39
I742
sV\u92bc
I8045
sV\u8941
I5376
sV\u8f45
I4114
sV\u8549
I1269
sV\u584b
I4465
sV\u9b4d
I4413
sV\u605b
I7156
sV\u665f
I6765
sV\u58e0
I2939
sV\u9be2
I4797
sV\u7267
I1593
sV\u91e6
I7968
sV\u54e8
I5928
sV\u886b
I2077
sV\u6aec
I6392
sV\u60f0
I3331
sV\u8473
I3700
sV\u66f4
I195
sV\u72fc
I1473
sV\u6881
I1135
sV\u9b0c
I4638
sV\u5c0e
I2534
sV\u5212
I8452
sV\u9714
I8350
sV\u6816
I2489
sV\u8c99
I7620
sV\u6e1a
I2093
sV\u829d
I404
sV\u9ea5
I2938
sV\u7026
I7673
sV\u8232
I4579
sV\u533c
I4480
sV\u77bf
I5202
sV\u6f44
I5880
sV\u83c7
I7093
sV\u6548
I747
sV\u7b4c
I760
sV\u50d1
I6252
sV\u95d3
I6116
sV\u6cd9
I873
sV\u5a62
I3511
sV\u566a
I1171
sV\u8aed
I4905
sV\u4fef
I2231
sV\u80f1
I5949
sV\u57ff
I6407
sV\u747e
I4309
sV\u4f84
I8006
sV\u6307
I566
sV\u8086
I1495
sV\u868a
I3043
sV\u5b8c
I3462
sV\u5190
I8078
sV\u7513
I4179
sV\u8b17
I4693
sV\u6d98
I2792
sV\u811b
I2127
sV\u5821
I5044
sV\u9d23
I2544
sV\u5e25
I4717
sV\u7fa4
I4256
sV\u6031
I2237
sV\u6635
I5965
sV\u7c39
I7056
sV\u723d
I1022
sV\u6ac2
I2060
sV\u60c6
I908
sV\u8449
I64
sV\u9a4d
I5437
sV\u9051
I2790
sV\u5553
I140
sV\u72d2
I5603
sV\u6b57
I8038
sV\u675f
I2456
sV\u7d63
I7738
sV\u5fe4
I6151
sV\u896b
I4524
sV\u96ea
I241
sV\u6bec
I2591
sV\u67f4
I49
sV\u5c79
I4875
sV\u527d
I6327
sV\u977f
I8143
sV\u8a00
I646
sV\u6d85
I6866
sV\u6789
I119
sV\u798d
I2800
sV\u980c
I2375
sV\u9210
I5092
sV\u5112
I607
sV\u7595
I6623
sV\u9414
I3273
sV\u6b16
I6614
sV\u6d1a
I7785
sV\u819d
I629
sV\u671e
I7018
sV\u752a
I3691
sV\u5e38
I438
sV\u503c
I1198
sV\u74bf
I7376
sV\u973e
I667
sV\u8ec3
I8259
sV\u6fd9
I6301
sV\u7be1
I6992
sV\u5962
I1878
sV\u5366
I3978
sV\u77e9
I3995
sV\u6f6e
I314
sV\u83f1
I2278
sV\u52fb
I2193
sV\u7d7a
I6227
sV\u8386
I6806
sV\u7a0b
I1567
sV\u858a
I2414
sV\u7c0f
I5225
sV\u9192
I17
sV\u5494
I5871
sV\u6e98
I3453
sV\u821b
I6734
sV\u7aa0
I3071
sV\u7ca4
I2770
sV\u4fae
I5001
sV\u82b0
I2626
sV\u5bb6
I1482
sV\u5dba
I36
sV\u8b41
I6240
sV\u4e43
I2977
sV\u63c6
I6282
sV\u994d
I7487
sV\u5c4f
I999
sV\u7fce
I2022
sV\u5653
I3160
sV\u71d2
I972
sV\u4ed8
I2275
sV\u625b
I5179
sV\u8dda
I5706
sV\u645f
I6296
sV\u5ae0
I3028
sV\u7e63
I7308
sV\u99e2
I3801
sV\u7067
I5663
sV\u93e6
I1705
sV\u8a6b
I4091
sV\u64f4
I8343
sV\u5f79
I2588
sV\u947f
I2822
sV\u8b00
I658
sV\u6c85
I4249
sV\u8d04
I6155
sV\u6689
I1905
sV\u788d
I6562
sV\u990c
I2709
sV\u9310
I4388
sV\u5012
I1571
sV\u809d
I3837
sV\u661e
I7591
sV\u7822
I6488
sV\u96a9
I4275
sV\u6bab
I4539
sV\u742a
I4784
sV\u6daf
I383
sV\u67b3
I1483
sV2
I5787
sV\u79b7
I4550
sV\u9a36
I4310
sV\u5f38
I7607
sV\u73bb
I5274
sV\u513c
I3747
sV\u6d44
I6769
sV\u6748
I5935
sV\u58cd
I5242
sV\u52d1
I5669
sV\u7350
I6040
sV\u97d3
I1711
sV\u7554
I1669
sV\u8f58
I5002
sV\u60dd
I5731
sV\u5862
I1197
sV\u76e9
I8271
sV\u9768
I2167
sV\u546a
I5022
sV\u6e6e
I3927
sV\u82f1
I879
sV\u7a76
I5714
sV\u7c7a
I6404
sV\u90fd
I366
sV\u767e
I950
sV\u8882
I2220
sV\u8286
I8694
sV\u7b0b
I3593
sV\u7d0f
I7845
sV\u5594
I3424
sV\u4e19
I5021
sV\u6f98
I3239
sV\u851f
I2399
sV\u7ba0
I6863
sV\u9127
I3567
sV\u89ac
I6312
sV\u4eae
I1470
sV\u7e39
I2744
sV\u91bc
I5836
sV\u56be
I7171
sV\u8a41
I5988
sV\u4f43
I6015
sV\u62c6
I3263
sV\u64ca
I477
sV\u984d
I1875
sV\u9455
I6111
sV\u6957
I5584
sV\u8ad6
I487
sV\u4fd8
I3106
sV\u8cda
I6098
sV\u5be0
I6317
sV\u7f63
I6865
sV\u98e2
I1664
sV\u7167
I1158
sV\u69ec
I8639
sV\u63f0
I8203
sV\u5e79
I4192
sV\u71fc
I1157
sV\u7591
I278
sV\u9410
I6716
sV\u5712
I885
sV\u7395
I3133
sV\u9214
I2253
sV\u611e
I4908
sV\u9da1
I5424
sV\uff22
I8300
sV\u7526
I6049
sV\u6cab
I961
sV\u732a
I3914
sV3
I5474
sV\u8732
I8549
sV\u7eb7
I8608
sV\u563c
I8369
sV\u6c40
I1738
sV\u6a44
I6613
sV\u86c7
I1366
sV\u5fcd
I1625
sV\u9acf
I5986
sV\u8858
I8518
sV\u67dd
I3778
sV\u865c
I1635
sV\u7de1
I3938
sV\u9c60
I3718
sV\u5f62
I920
sV\u7be5
I4057
sV\u9a64
I4199
sV\u9068
I3789
sV\u8fed
I6072
sV\u696e
I3316
sV\u6772
I3482
sV\u5ef7
I1639
sV\u7d76
I6778
sV\u52ff
I3411
sV\u6607
I2496
sV\u7c0b
I7511
sV\u838a
I2008
sV\u7a0f
I7736
sV\u821f
I808
sV\u9627
I6599
sV\u6f2d
I4874
sV\u8eac
I2870
sV\u98b8
I4422
sV\u773d
I7970
sV\u96bc
I2962
sV\u6fc2
I8534
sV\u65c6
I4935
sV\u5c4b
I1676
sV\u5053
I6567
sV\u8dd6
I5514
sV\u645b
I4283
sV\u50e8
I8726
sV\u8c6b
I5159
sV\u6eec
I5707
sV\u8073
I753
sV\u5979
I8660
sV\u76fc
I4567
sV\u927f
I7062
sV\u6c81
I2378
sV\u8b04
I8147
sV\u6089
I3454
sV\u8108
I2211
sV\u7e8d
I2846
sV\u9f0c
I6458
sV\u5612
I4421
sV\u4f97
I6796
sV\u8899
I5180
sV\u7e22
I5085
sV\u7426
I6079
sV\u722a
I2307
sV\u6baf
I5730
sV\u882e
I6794
sV\u5938
I4926
sV\u75bb
I5188
sV\u903e
I3139
sV\u87c7
I5088
sV\u6148
I593
sV\u7f4c
I4913
sV\u7550
I7159
sV\u52d5
I1243
sV\u68d9
I8305
sV\u66dd
I4576
sV\u9d60
I2761
sV\u5e62
I2536
sV\u7ae5
I1594
sV\u5466
I5299
sV\u526a
I2689
sV\u686e
I2874
sV\u84f1
I8646
sV\u7a7a
I386
sV\u53ff
I7158
sV\u707e
I5884
sV\u7d0b
I1982
sV\u828a
I4316
sV\u5f8c
I87
sV\u7b0f
I3278
sV\u8f17
I8385
sV\u6998
I8092
sV\u679c
I1640
sV\u7da0
I74
sV\u5a25
I2881
sV\u9727
I1349
sV\u5029
I2357
sV\u71a8
I2691
sV\u6e2d
I1123
sV\u85b0
I3004
sV\u50be
I476
sV\u8c41
I3209
sV\u6ec2
I4323
sV\u5d4b
I4734
sV\u62ca
I2690
sV\u78ce
I6359
sV\u9451
I2500
sV\u76d2
I7108
sV\u8cd6
I6854
sV\u80de
I5998
sV\u5be4
I681
sV\u8d6b
I1807
sV\u92ea
I2039
sV\u6fec
I4798
sV\u8b6f
I4318
sV\u65f0
I636
sV\u8173
I2497
sV\u63f4
I2839
sV\u9f77
I3726
sV\u5879
I1576
sV\u79f8
I7214
sV\u77fc
I7035
sV\u6f81
I2370
sV\u6389
I2404
sV\u8208
I1580
sV\u7d8d
I6249
sV\u9c0c
I1219
sV\u7791
I4219
sV\u9014
I770
sV\u8b99
I6556
sV\u859d
I5722
sV\u7d22
I1248
sV\u99a5
I4125
sV\u7726
I7708
sV\u93a9
I4596
sV\u6eab
I3076
sV\u68af
I645
sV\u8532
I5586
sV\u76bb
I7357
sV\u993a
I8158
sV\u543c
I1342
sV\u4fc1
I8005
sV\u6844
I6612
sV\u6248
I4408
sV\u5dcd
I2863
sV\u7c4c
I2132
sV\u8a58
I5271
sV\u7fe1
I2079
sV\u5766
I1838
sV\u73e9
I6045
sV\u6572
I1933
sV\u9bf9
I8334
sV\u797a
I8237
sV\u4e80
I8131
sV\u8d82
I2928
sV\u8786
I7443
sV\u7e0b
I3840
sV\u818a
I6008
sV\u5c8c
I3805
sV\u5690
I6498
sV\u9592
I4681
sV\u649c
I7948
sV\u9a23
I4514
sV\u5925
I6779
sV\u72a8
I6830
sV\u8cac
I1911
sV\u6731
I513
sV\u86b0
I8526
sV\u80b4
I3464
sV\u9ab8
I3539
sV\u753d
I7039
sV\u8349
I368
sV\u61ca
I2244
sV\u584f
I7908
sV\u75d2
I5753
sV\u9155
I5327
sV\u6c57
I1080
sV\u665b
I7637
sV\u89da
I6565
sV\u605f
I7901
sV\u5ee0
I1485
sV\u58e4
I204
sV\u6cec
I2723
sV\u66f0
I4027
sV\u60f4
I4705
sV\u9c77
I7277
sV\u967b
I8279
sV\u907f
I1393
sV\u8f00
I7699
sV\u6885
I816
sV\u6289
I3105
sV\u8308
I7764
sV\u5412
I3601
sV\u9114
I7441
sV\uff5b
I8691
sV\u621e
I6756
sV\u5ba3
I620
sV\u55a7
I1822
sV\u7626
I65
sV\u7db7
I1084
sV\u77bb
I2451
sV\u553c
I1255
sV\u4ec1
I1432
sV\u6f40
I8638
sV\u99cf
I7235
sV\u56d1
I2907
sV\u50d5
I1821
sV\u4e56
I2346
sV\u8b58
I493
sV\u9f60
I3919
sV\u5c62
I630
sV\u78e5
I5296
sV\u5666
I6228
sV\u72e9
I5183
sV\u506a
I3030
sV\u8ced
I4942
sV\u5df7
I1024
sV\u9af9
I7220
sV\u727e
I8124
sV\u6b03
I2749
sV\u8c82
I1402
sV\u7313
I5272
sV\u6b98
I794
sV\u659c
I975
sV\u9b23
I3098
sV\u5229
I814
sV\u6631
I6784
sV\u6035
I6331
sV\u81b4
I6193
sV\u5eb6
I1790
sV\u7a39
I6837
sV\u58ba
I7675
sV\u95bc
I3596
sV\u52be
I6354
sV\u8e41
I6239
sV\u6cc2
I7004
sV\u8845
I8600
sV\u66c6
I641
sV\u60ca
I6127
sV\u9c4d
I6376
sV\u594f
I1976
sV\u9651
I8002
sV\u5353
I1353
sV\u9055
I1330
sV\u615f
I3179
sV\u82de
I1502
sV\u5fe0
I1906
sV\u7b63
I7809
sV\u59e4
I6707
sV\u7567
I3302
sV\u53e8
I1869
sV\u90ea
I8303
sV\u6dec
I5120
sV\u896f
I132
sV\u67f0
I2269
sV\u8373
I2242
sV\u9d77
I3640
sV\u7bf8
I1994
sV\u547d
I749
sV\u75fc
I5859
sV\u7181
I7180
sV\u9000
I946
sV\u7d89
I8206
sV\u5f0a
I1224
sV\u820c
I1385
sV\u8810
I3793
sV\u8e14
I4979
sV\u9599
I7150
sV\u771a
I6771
sV\u70ab
I2568
sV\u6f2a
I3485
sV\u5830
I3523
sV\u7cb3
I6212
sV\u9b32
I7015
sV\u873a
I3138
sV\u7040
I5035
sV\u9ac7
I5105
sV\u5dc9
I2994
sV\u6850
I2018
sV\u8cd3
I1708
sV\u6e54
I2957
sV\u5156
I6578
sV\u7bdd
I4221
sV\u61e1
I7727
sV\u67e5
I2852
sV\u8664
I8208
sV\u6de9
I4225
sV\u4f6a
I7205
sV\u756e
I7104
sV\u99f1
I3830
sV\u7b72
I6077
sV\u6176
I583
sV\u85f9
I3556
sV\u4eff
I4780
sV\u5080
I6156
sV\u7403
I4565
sV\u5684
I6742
sV\u5c88
I7122
sV\u660f
I916
sV\u6c13
I5260
sV\u8b92
I692
sV\u4e94
I403
sV\u7498
I6152
sV\u5b1d
I8294
sV\u60a0
I2055
sV\u8a27
I7561
sV\u732d
I657
sV\u55ae
I2203
sV\u7931
I6538
sV\u9eb4
I3374
sV\u6539
I904
sV\u84b8
I942
sV\u6b3d
I4104
sV\u8abc
I1454
sV\u5443
I5580
sV\u73c2
I2209
sV\u7fca
I2964
sV\u834d
I7497
sV\u65ce
I3614
sV\u6bd2
I1304
sV\u7257
I7140
sV\u5adc
I5432
sV\u83e2
I8399
sV\u8fea
I4355
sV\u536d
I2558
sV\u8277
I5868
sV\u7081
I3109
sV\u9100
I8069
sV\u9704
I401
sV\u5806
I1888
sV\u7c89
I1261
sV\u9d08
I2371
sV\u5e0a
I8661
sV\u830c
I7873
sV\u8910
I3521
sV\u8f14
I3544
sV\u7016
I5684
sV\u7c1e
I3675
sV\u80a1
I1115
sV\u6222
I4809
sV\u8ca9
I4453
sV\u942e
I5074
sV\u7db3
I7114
sV\u8036
I3964
sV\u69bb
I2068
sV\u863a
I4278
sV\u50c1
I7424
sV\u95c3
I1781
sV\u56c5
I3405
sV\u7744
I8125
sV\u5cc9
I7518
sV\u87cf
I8282
sV\u4ed5
I3164
sV\u6f54
I1279
sV\u7add
I3281
sV\u60e1
I651
sV\u8160
I5752
sV\u8764
I6495
sV\u92ed
I5833
sV\u98f1
I3412
sV\u5df3
I3799
sV\u84f9
I5870
sV\u667a
I1155
sV\u6c7e
I3766
sV\u3001
I4032
sV\u5180
I2809
sV\u7503
I3016
sV\u7b07
I5682
sV\u670f
I7429
sV\u4f94
I4086
sV\u7b9c
I4640
sV\u9f1f
I7609
sV\u8523
I4051
sV\u67a4
I8738
sV\u722d
I116
sV\u93ac
I4992
sV\u7e35
I3981
sV\u6a3d
I3207
sV\u9041
I3131
sV\u72c2
I95
sV\u9c49
I4983
sV\u64ce
I1053
sV\u8e55
I4823
sV\u7357
I7668
sV\u795b
I3500
sV\u7f5f
I4672
sV\u6563
I595
sV\u82e2
I3844
sV\u6b67
I3356
sV\u8377
I1054
sV\u897b
I7229
sV\u5102
I980
sV\u7f89
I7992
sV\u618d
I8537
sV\u800c
I193
sV\u6b91
I7606
sV\u8a10
I4595
sV\u6d95
I388
sV\u7316
I4713
sV\u5a9b
I5269
sV\u751a
I200
sV\u6d2a
I2578
sV\u502c
I6731
sV\u972e
I5389
sV\u8336
I962
sV\u6abb
I1920
sV\u6cbf
I1529
sV\u8f3e
I2144
sV\u53c1
I8756
sV\u7240
I776
sV\u55c5
I6501
sV\u98c7
I8541
sV\u5fc9
I1808
sV\u604c
I7988
sV\u84cf
I6489
sV\u6a50
I3005
sV\u6c54
I8326
sV\u9658
I5760
sV\u5f5e
I6740
sV\u63e1
I3261
sV\u65e5
I220
sV\u6fe9
I1811
sV\u91ed
I3423
sV\u5ef3
I1701
sV\u7972
I1045
sV\u6376
I6164
sV\u87f9
I4834
sV\u657a
I6836
sV\u6f7e
I5073
sV\u5280
I7788
sV\u7603
I7775
sV\u5484
I3686
sV\u9d8a
I8168
sV\u640f
I1139
sV\u9017
I5268
sV\u64a4
I4358
sV\u8827
I7996
sV\u712d
I7686
sV\u7b31
I3816
sV\u9ab0
I5176
sV\u59b2
I6334
sV\u7d35
I2296
sV\u693d
I4223
sV\u71c2
I5507
sV\u7bc6
I2987
sV\u7dca
I1970
sV\u67ce
I8253
sV\u93d6
I6166
sV\u56d8
I6604
sV\u95da
I5692
sV\u58dc
I7075
sV\u7c5f
I2834
sV\u8dea
I3402
sV\u516d
I1884
sV\u5b71
I3928
sV\u7cf4
I2781
sV\u8077
I1699
sV\u66f8
I308
sV\u68fc
I326
sV\u7281
I2867
sV\u9300
I8732
sV\u5002
I6202
sV\u7485
I3943
sV\u9f08
I3537
sV\u5c0a
I1562
sV\u608d
I6409
sV\u6a91
I5951
sV\u8b10
I4354
sV\u8d14
I5463
sV\u5197
I3636
sV\u9699
I1036
sV\u5b9b
I2675
sV\u741a
I3948
sV\u7e1e
I4959
sV\u82a1
I4831
sV\u8ea9
I6468
sV\u73ab
I5037
sV\u962e
I419
sV\u5b30
I1445
sV\u5d34
I7619
sV\u8236
I3294
sV\u6bbb
I6713
sV\u6dbf
I4752
sV\u52c1
I986
sV\u97c3
I7137
sV\u5ec9
I3324
sV\u614c
I7278
sV\u85cf
I26
sV\u6b50
I4486
sV\u8fd3
I4106
sV\u5256
I4236
sV\u9758
I7515
sV\u78dd
I8505
sV\u995c
I7538
sV\u5e5e
I7890
sV\u64e5
I7086
sV\u8564
I3664
sV\u53eb
I762
sV\u90ed
I1112
sV\u6276
I250
sV\u86f9
I7905
sV\u647a
I8629
sV\u88fd
I3654
sV\u9082
I2539
sV\u5584
I2641
sV\u5f88
I6732
sV\u650f
I2159
sV\u6f13
I2058
sV\u8892
I448
sV\u9b1b
I7438
sV\u581d
I6704
sV\u799c
I7651
sV\u9d1f
I2339
sV\u63a0
I2423
sV\u8723
I5844
sV\u65a4
I3504
sV\u8927
I7715
sV\u6fa8
I6746
sV\u91ac
I4645
sV\u56ae
I3230
sV\u7a31
I490
sV\u7c35
I8502
sV\u9db4
I135
sV\u683d
I2507
sV\u89bc
I7090
sV\u5947
I105
sV\u7cca
I5227
sV\u4f53
I8249
sV\u68d2
I5934
sV\u8c55
I3769
sV\u7157
I8552
sV\u59dc
I2794
sV\u9ede
I1043
sV\u8ae6
I3858
sV\u8cea
I2054
sV\u71ec
I6408
sV\u7df4
I427
sV\u8177
I7909
sV\u67f8
I7189
sV\u8b7b
I7574
sV\u7385
I7743
sV\u5d06
I5263
sV\u7989
I8709
sV\u9808
I837
sV\u678d
I6941
sV\u5697
I7521
sV\u7516
I3469
sV\u5a9f
I5903
sV\u89a9
I1642
sV\u74ab
I1403
sV\u562c
I7932
sV\u72af
I1316
sV\u912e
I6841
sV\u5c30
I7604
sV\u6cbb
I2958
sV\u6abf
I7953
sV\u893e
I7083
sV\u55c1
I6798
sV\u7440
I4735
sV\u90c3
I6892
sV\u59c9
I7098
sV\u84cb
I1011
sV\u664c
I5668
sV\u6c50
I8031
sV\u88d3
I7412
sV\u5556
I5235
sV\u9058
I4771
sV\u535a
I2676
sV\u65e1
I8734
sV\u8460
I7758
sV\u8264
I2502
sV\u69e9
I6619
sV\u8868
I893
sV\u97ed
I6265
sV\u716e
I2580
sV\u7f72
I2202
sV\u637a
I7105
sV\u8ffd
I1061
sV\u5480
I4020
sV\u7003
I7496
sV\u5284
I8024
sV\u9d86
I8717
sV\u5f1d
I5566
sV\u7e9c
I3487
sV\u8e27
I7773
sV\u68a8
I2706
sV\u772d
I7354
sV\u7d31
I2885
sV\u80b8
I4382
sV\u5043
I1925
sV\u9949
I6602
sV\u7bca
I7045
sV\u7657
I7322
sV\u95d6
I7217
sV\u7c5b
I8040
sV\u93da
I8224
sV\u7a5f
I5184
sV\u99de
I3814
sV\u6063
I1963
sV\u87e2
I4956
sV\u6e67
I2587
sV\u76ec
I8051
sV\u7cf0
I4069
sV\u60f8
I5210
sV\u4f7d
I6162
sV\u8a7f
I7860
sV\u7481
I5138
sV\u9304
I634
sV\u668d
I4639
sV\u8d10
I8251
sV\u8b14
I4994
sV\u5797
I8685
sV\u7416
I7116
sV\u9099
I3589
sV\u5d9b
I5360
sV\u721a
I7894
sV\u9e9d
I2128
sV\u84a1
I8716
sV\u82a5
I1513
sV\u75ab
I5335
sV\u6a2a
I6875
sV\u902e
I4022
sV\u79b3
I2298
sV\u5b34
I3470
sV\u67b7
I5234
sV\u4f3c
I828
sV\u6bbf
I567
sV\u883e
I7142
sV\u54c1
I268
sV\u91c3
I6975
sV\u52c5
I4477
sV\u7344
I3884
sV\u7948
I4259
sV\u85cb
I5770
sV\u674c
I5954
sV\u83cf
I5673
sV\u6b54
I6028
sV\u70d9
I7172
sV\u585e
I372
sV\u64e1
I2141
sV\u96ed
I8009
sV\u53ef
I364
sV\u9af5
I7803
sV\u6476
I4033
sV\u5384
I2654
sV\u808e
I7694
sV\u8e92
I6961
sV\u5019
I921
sV\u9d1b
I575
sV\u5e1d
I370
sV\u7f9c
I7813
sV\u9b1f
I2061
sV\u8123
I819
sV\u8f27
I5743
sV\u97ac
I5670
sV\u8fbc
I8753
sV\u5143
I1957
sV\u76c2
I2894
sV\u9245
I5058
sV\u7aca
I2659
sV\u60ce
I8512
sV\u8a55
I5317
sV\u7757
I7262
sV\u51d8
I5358
sV\u7d5b
I6461
sV\u6163
I2413
sV\u8ce6
I1652
sV\u566d
I5408
sV\u77ec
I7958
sV\u5c71
I413
sV\u7bf4
I8318
sV\u61f8
I148
sV\u9004
I8081
sV\u840c
I4534
sV\u8e10
I4258
sV\u6995
I4879
sV\u8814
I7280
sV\u711a
I2440
sV\u589f
I4243
sV\u7b1e
I6554
sV\u6522
I3147
sV\u6f26
I7008
sV\u542c
I6323
sV\u70af
I5036
sV\u932e
I3903
sV\u7ab3
I7817
sV\u5834
I871
sV\u6ebb
I8587
sV\u8b3e
I1870
sV\u92c3
I3001
sV\u80cf
I6935
sV\u6854
I3790
sV\u73d9
I7664
sV\u515a
I4899
sV\u7ddd
I2252
sV\u736e
I5461
sV\u7d72
I327
sV\u4efb
I851
sV\u8dfd
I7288
sV\u5680
I4132
sV\u9582
I6888
sV\u7c07
I1760
sV\u600f
I4000
sV\u838e
I2359
sV\u6a13
I1189
sV\u5319
I3534
sV\u9e1b
I4337
sV\u981f
I6250
sV\u66a0
I7199
sV\u60a4
I1890
sV\u9eb0
I7899
sV\u5db2
I7754
sV\u6339
I1178
sV\u82b8
I3117
sV\u6d3d
I2627
sV\u8cbc
I2224
sV\u9741
I6085
sV\u5243
I2552
sV\u9145
I7861
sV\u63ce
I6540
sV\u6dd2
I1274
sV\u7457
I6302
sV\u52d8
I3630
sV\u6263
I1608
sV\u6c67
I6400
sV\u8fe6
I4604
sV\u906f
I3140
sV\u5f71
I1072
sV\u78f4
I4008
sV\u8477
I3457
sV\u8e7b
I7231
sV\u887f
I1900
sV\u7681
I3767
sV\u9700
I4896
sV\u7085
I4176
sV\u9104
I8498
sV\u5e06
I312
sV\u9b08
I7552
sV\u580a
I4100
sV\u850c
I7654
sV\u7616
I5430
sV\u9299
I7695
sV\u701a
I3125
sV\u86a1
I8258
sV\u6422
I4808
sV\u80a5
I59
sV\u6e26
I4495
sV\u682a
I535
sV\u71af
I7348
sV\u5f30
I7408
sV\u7bb3
I7079
sV\u9c32
I2924
sV\u65b7
I514
sV\u69bf
I8301
sV\u8a3e
I6589
sV\u56c1
I6928
sV\u7740
I2930
sV\u93c3
I2518
sV\u50c5
I4147
sV\u9dc7
I5414
sV\u5ac9
I1001
sV\u7b48
I6878
sV\u87cb
I3123
sV\u81cf
I5585
sV\u6954
I6071
sV\u72d9
I2968
sV\u505a
I6852
sV\u7cdd
I4924
sV\u9d5c
I4506
sV\u66e1
I8416
sV\u8760
I2384
sV\u6ae9
I8493
sV\u7c72
I6068
sV\u6676
I1177
sV\u82f9
I7042
sV\u8cfd
I3607
sV\u7d07
I6106
sV\u5b88
I534
sV\u670b
I3196
sV\u610f
I333
sV\u828e
I7179
sV\u9f1b
I7382
sV\u7d9c
I4818
sV\u61a4
I3042
sV\u742d
I7554
sV\u95ac
I4113
sV\u7e31
I2009
sV\u99b4
I3822
sV\u8dbc
I6417
sV\u9641
I5083
sV\u5343
I180
sV\u5d47
I741
sV\u78ca
I4409
sV\u62ce
I6025
sV\u96d6
I586
sV\u7f5b
I4266
sV\u795f
I6179
sV\u976b
I5033
sV\u7ff0
I1149
sV\u5875
I55
sV\u8577
I6356
sV\u6dfc
I4871
sV\u897f
I725
sV\u7981
I2096
sV\u7f85
I172
sV\u5106
I7683
sV\u6b8d
I6654
sV\u6191
I2087
sV\u8010
I2612
sV\u6795
I830
sV\uff1a
I2976
sV\u939d
I4642
sV\u751e
I8202
sV\u89a1
I5294
sV\u85a9
I3637
sV\u672a
I42
sV\u5a2c
I2640
sV\u5030
I2686
sV\u9332
I7999
sV\u5634
I3048
sV\u8936
I5610
sV\u853e
I5208
sV\u5fc5
I43
sV\u7e44
I6254
sV\u55c9
I7439
sV\u88cb
I6332
sV\u8ecf
I8386
sV\u6050
I261
sV\u84d3
I7748
sV\u73dd
I6882
sV\u555e
I1196
sV\u8e64
I206
sV\u65e9
I867
sV\u58eb
I385
sV\u7d6e
I1010
sV\u91f1
I7800
sV\u54f3
I5016
sV\u7372
I1862
sV\u97f5
I5197
sV\u6f7a
I973
sV\u83fd
I5112
sV\u5880
I929
sV\u7c03
I7197
sV\u5e84
I6743
sV\u7207
I1940
sV\u9186
I958
sV\u5488
I8001
sV\u6413
I1964
sV\u8392
I8744
sV\u9a17
I8443
sV\u5d19
I2729
sV\u7c98
I3321
sV\u531d
I2589
sV\u68a0
I7765
sV\u7b2d
I7000
sV\u5dae
I4622
sV\u7131
I7871
sV\u53b2
I3685
sV\u7735
I7271
sV\u96b4
I2138
sV\u6d39
I7145
sV\u8cb8
I5574
sV\u633d
I3034
sV\u82bc
I7052
sV\u9941
I8260
sV\u7bc2
I7080
sV\u9f45
I2328
sV\u5247
I3058
sV\u8b4d
I2188
sV\u4e4f
I3472
sV\u8151
I3348
sV\u63d2
I1204
sV\u8755
I4657
sV\u7a57
I2185
sV\u99d6
I7719
sV\u95de
I6065
sV\u4ee4
I120
sV\u986b
I2219
sV\u87ea
I4070
sV\u5171
I789
sV\u5775
I6013
sV\u76f4
I572
sV\u62fc
I8095
sV\u7881
I2479
sV\u5006
I6091
sV\u7489
I6413
sV\u8b0c
I5363
sV\u5b97
I2073
sV\u7e1a
I5592
sV\u79ab
I8264
sV\u662a
I8153
sV\u7faf
I1986
sV\u75b3
I7182
sV\u6bb7
I1515
sV\u8836
I1009
sV\u67bf
I2995
sV\u58c1
I1951
sV\u7940
I3254
sV\u9dc3
I3716
sV\u5ec5
I8539
sV\u7f44
I4371
sV\u93c7
I5612
sV\u54c9
I1898
sV\u6b4c
I1295
sV\u545e
I7253
sV\u8960
I4048
sV\u8f64
I2333
sV\u8568
I3672
sV\u9aed
I1566
sV\u7c6e
I7880
sV\u7272
I3956
sV\u6876
I8312
sV\u82fd
I7318
sV\u7d03
I8356
sV\u5588
I4450
sV\u968a
I4153
sV\u6f0f
I1950
sV\u8c8e
I7984
sV\u8292
I810
sV\u7d98
I8046
sV\u521d
I350
sV\u6fa4
I1390
sV\u65a8
I7786
sV\u7a2d
I7925
sV\u7635
I6366
sV\u97b4
I5302
sV\u4eba
I12
sV\u623d
I8585
sV\u83bc
I8247
sV\u5d43
I6964
sV\u5347
I839
sV\u76ca
I689
sV\u4f4f
I546
sV\u6cce
I6785
sV\u62d2
I4039
sV\u8655
I775
sV\u5dd8
I4434
sV\u775f
I7952
sV\u6d63
I2415
sV\u6367
I2419
sV\u5a6d
I6437
sV\u9f6f
I6595
sV\u8b77
I1537
sV\u9a00
I2281
sV\u5306
I4210
sV\u4f0e
I3590
sV\u8210
I2693
sV\u6595
I4964
sV\u7b16
I8114
sV\u529b
I72
sV\u7d1a
I405
sV\u652a
I3265
sV\u5230
I1543
sV\u9132
I3272
sV\u5434
I8140
sV\u4e38
I2425
sV\u64bf
I7586
sV\u873e
I3991
sV\u7a40
I3145
sV\u9ec3
I700
sV\u90c7
I8317
sV\u8acb
I3101
sV\u6250
I8757
sV\u71dd
I4544
sV\u905c
I2523
sV\u6be1
I6909
sV\u8a60
I1899
sV\u6de5
I2889
sV\u67e9
I7588
sV\u5aeb
I6510
sV\u99ed
I859
sV\u5cef
I3038
sV\u7f6e
I2282
sV\u8ff9
I2179
sV\u677e
I284
sV\u6c0f
I3089
sV\u6613
I1014
sV\u9817
I3325
sV\u7e98
I4708
sV\u6aa0
I3659
sV\u8e23
I6288
sV\u66a8
I5398
sV\u5fae
I3
sV\u7331
I4108
sV\u51b2
I5850
sV\u613d
I8557
sV\u9b41
I720
sV\u5e43
I1926
sV\u5047
I2796
sV\u9749
I5904
sV\u75ca
I697
sV\u894d
I8758
sV\u6fce
I7009
sV\u8351
I3699
sV\u8555
I5917
sV\u9bd6
I4950
sV\u725b
I1751
sV\u50dc
I2687
sV\u745f
I2570
sV\u97de
I4728
sV\u6067
I5804
sV\u85ea
I3386
sV\u596d
I2599
sV\u78ec
I1153
sV\u5371
I805
sV\u9673
I602
sV\u74f4
I5040
sV\u8877
I1329
sV\u6ef8
I6264
sV\u7a81
I2717
sV\u5802
I948
sV\u5206
I211
sV\u9708
I1389
sV\u540a
I5418
sV\u890c
I6213
sV\u4e0e
I8173
sV\u6291
I2162
sV\u6495
I7293
sV\u8514
I4649
sV\u559f
I4420
sV\u761e
I3100
sV\u8aa1
I3285
sV\u6822
I4078
sV\u86a9
I3985
sV\u642a
I6440
sV\u592c
I7933
sV\u7daf
I8198
sV\u77b3
I3920
sV\u9032
I110
sV\u69b7
I5718
sV\u8a36
I4007
sV\u4f38
I3383
sV\u63bb
I3572
sV\u8c3a
I6130
sV\u65bf
I5134
sV\u5ac1
I2277
sV\u7d44
I1657
sV\u91c7
I1294
sV\u56c9
I5499
sV\u8dcf
I3856
sV\u6350
I751
sV\u6554
I8230
sV\u70dd
I5212
sV\u565e
I4172
sV\u6ce5
I824
sV\u8d64
I2506
sV\u66e9
I4446
sV\u8768
I5135
sV\u5beb
I2986
sV\u98ed
I4442
sV\u57f3
I8500
sV\u8ef9
I7751
sV\u6c7a
I2831
sV\u80fd
I827
sV\u5d84
I5397
sV\u6d0f
I7100
sV\u6713
I3326
sV\u9917
I7735
sV\u5e19
I3520
sV\u782d
I4571
sV\u99ac
I1318
sV\u93b0
I4478
sV\u50b2
I2348
sV\u7435
I3397
sV\u95b4
I6895
sV\u9a41
I7344
sV\u5147
I4412
sV\u74ca
I1179
sV\u884d
I4261
sV\u6ece
I4288
sV\u8251
I5709
sV\u7957
I2872
sV\u9ad6
I6945
sV\u5fd8
I557
sV\u51dc
I2421
sV\u96de
I129
sV\u6167
I3546
sV\u82e6
I1203
sV\u84ea
I7717
sV\u79ec
I8243
sV\u9d6f
I6515
sV\u9773
I4656
sV\u5475
I2223
sV\u4e79
I2484
sV\u837b
I1749
sV\u61fc
I3049
sV\u5f02
I7503
sV\u9a04
I4812
sV\u9008
I3084
sV\u530a
I6345
sV\u6f8d
I7495
sV\u6591
I1861
sV\u8410
I8272
sV\u8214
I8419
sV\u5e97
I3276
sV\u9999
I161
sV\u529f
I429
sV\u6f22
I112
sV\u81a9
I1260
sV\u5e2c
I2002
sV\u7aaf
I3347
sV\u992e
I8313
sV\u5430
I7315
sV\u70b3
I4726
sV\u9732
I166
sV\u6eb7
I6112
sV\u64bb
I5656
sV\u813e
I5526
sV\u7c40
I6948
sV\u98c3
I7854
sV\u5bc5
I3395
sV\u96c7
I3668
sV\u51c9
I5855
sV\u6e4c
I7710
sV\u8acf
I4205
sV\u6450
I2984
sV\u6254
I6642
sV\u9858
I324
sV\u5b5a
I4758
sV\u77dd
I8663
sV\u965c
I8096
sV\u6de1
I2823
sV\uff3d
I5793
sV\u4ef7
I8680
sV\u617e
I3455
sV\u7607
I7665
sV\u5088
I7997
sV\u6c0b
I6967
sV\u4e8c
I1815
sV\u6a0f
I7436
sV\u5919
I3649
sV\u571d
I8529
sV\u769c
I8598
sV\u8627
I3061
sV\u60a8
I8514
sV\u7531
I802
sV\u6939
I3183
sV\u673d
I2362
sV\u9d41
I2380
sV\u9b45
I3862
sV\u5647
I6010
sV\u75c6
I7926
sV\u9149
I5822
sV\u73ca
I1563
sV\u8f4d
I321
sV\u69ce
I1088
sV\u67d2
I5989
sV\u9dd6
I3761
sV\u58d8
I2897
sV\u745b
I7414
sV\u725f
I899
sV\u8fe2
I1114
sV\u6667
I6727
sV\u5f6d
I2921
sV\u5375
I4835
sV\u72f4
I5261
sV\u66fc
I4325
sV\u5e02
I1344
sV\u7a85
I3962
sV\u520a
I4156
sV\u6491
I3746
sV\u6295
I2410
sV\u5f97
I118
sV\u7a1a
I2814
sV\u969d
I8710
sV\u539f
I733
sV\u8ca1
I3652
sV\u6e22
I4854
sV\u8aa5
I3277
sV\u6426
I2318
sV\u80a9
I690
sV\u7dab
I2215
sV\u622a
I3619
sV\u982e
I5250
sV\u71b3
I1972
sV\u9632
I1460
sV\u8a3a
I6611
sV\u63bf
I5178
sV\u7d40
I8284
sV\u99c3
I5838
sV\u50c9
I6036
sV\u8dcb
I5828
sV\u4ecd
I1433
sV\u9958
I6464
sV\u5a5a
I3215
sV\u76dd
I7109
sV\u975c
I788
sV\u6ce1
I4060
sV\u6ae5
I6959
sV\u5deb
I1784
sV\u786e
I5704
sV\u7672
I764
sV\u6c76
I4919
sV\u88f9
I153
sV\u9e82
I6925
sV\u5b84
I6724
sV\u7707
I4103
sV\u3009
I5791
sV\u6d0b
I4685
sV\u6b0f
I5281
sV\u888e
I8292
sV\u9f17
I6985
sV\u5819
I5853
sV\u8923
I7881
sV\u6ba4
I2922
sV\u61a8
I5319
sV\u7e2d
I7263
sV\u58ae
I2310
sV\u7431
I5757
sV\u56b2
I3660
sV\u7235
I3689
sV\u6839
I1570
sV\u9a45
I1729
sV\u5747
I2550
sV\u9049
I7762
sV\u8451
I2765
sV\u755b
I7210
sV\u57dc
I5696
sV\u6963
I5582
sV\u7fec
I6978
sV\u9b6f
I694
sV\u5471
I6585
sV\u75f0
I6635
sV\u5275
I4432
sV\u9e00
I7043
sV\u7389
I127
sV\u6791
I7679
sV\u8014
I7240
sV\u6726
I2155
sV\u83a9
I5124
sV\u78af
I8565
sV\u9b2e
I2327
sV\u8f36
I4231
sV\u8035
I7289
sV\u53c9
I4142
sV\u7248
I4837
sV\u8ecb
I3029
sV\u88cf
I716
sV\u82d3
I4749
sV\u5f56
I6447
sV\u7bd9
I3745
sV\u595a
I4235
sV\u535e
I4960
sV\u6fe1
I618
sV\u8e60
I7423
sV\u69e5
I7404
sV\u8864
I6706
sV\u63e9
I5399
sV\u8268
I4832
sV\u58ef
I539
sV\u7b6e
I4547
sV\u52f3
I2442
sV\u91f5
I143
sV\u5e80
I7570
sV\u9d82
I2651
sV\u5884
I4541
sV\u7407
I6944
sV\u5288
I4654
sV\u8b8e
I1823
sV\u5b19
I1881
sV\u7a98
I5322
sV\u749c
I4810
sV\u901f
I422
sV\u6ea0
I6225
sV\u8a23
I2056
sV\u62a8
I3980
sV\u5bae
I245
sV\u96b0
I1587
sV\u90b4
I5143
sV\u4fb6
I1797
sV\u6b39
I1909
sV\u84bc
I185
sV\u9f41
I7811
sV\u9945
I8213
sV\u5447
I8464
sV\u9349
I6673
sV\u4e4b
I662
sV\u65d2
I4119
sV\u8155
I850
sV\u93de
I4247
sV\u6467
I1730
sV\u81ea
I51
sV\u986f
I671
sV\u5771
I4554
sV\u5175
I1096
sV\u6af8
I8302
sV\u867b
I6991
sV\u807f
I5911
sV\u7e81
I4271
sV\u9904
I8201
sV\u5606
I3025
sV\u6c8d
I6346
sV\u6691
I1046
sV\u6095
I8677
sV\u579b
I5104
sV\u721e
I7682
sV\u8ea1
I1585
sV\u82a9
I5634
sV\u602a
I1298
sV\u9a2e
I3365
sV\u5730
I175
sV\u73b3
I2556
sV\u6db7
I5635
sV\u67bb
I6037
sV\u5ec1
I4826
sV\u58c5
I2617
sV\u95c7
I3378
sV\u52c9
I3227
sV\u6750
I889
sV\u83d3
I4406
sV\u9b58
I2684
sV\u585a
I2514
sV\u525e
I8387
sV\u8964
I8550
sV\u5feb
I3007
sV\u7a6e
I7328
sV\u53f3
I1421
sV\u7472
I7190
sV\u90f5
I1778
sV\u84fd
I2815
sV\u5f80
I1273
sV\u5984
I3330
sV\u9686
I2598
sV\u5388
I8696
sV\u908a
I231
sV\u690f
I7054
sV\u7b98
I7209
sV\u541d
I6082
sV\u6fa0
I2953
sV\u69a4
I8436
sV\u63a8
I1834
sV\u9dac
I5166
sV\u5aae
I7560
sV\u54b2
I5940
sV\u7035
I8471
sV\u91b4
I2075
sV\u4eb6
I6931
sV\u6a39
I1086
sV\u643d
I8160
sV\u5b43
I4046
sV\u76c6
I2283
sV\u9249
I4791
sV\u64d2
I3768
sV\u9ed6
I7624
sV\u5bd8
I7002
sV\u775b
I1315
sV\u98da
I8686
sV\u55dc
I1276
sV\u92de
I6955
sV\u4fe0
I1670
sV\u6b63
I708
sV\u8ce2
I259
sV\u6567
I829
sV\u86e6
I7444
sV\u5c6d
I5464
sV\u7dec
I3875
sV\u5671
I6813
sV\u77f0
I3148
sV\u9373
I8725
sV\u5075
I7221
sV\u8d77
I336
sV\u6bf8
I5163
sV\u817f
I6007
sV\u6302
I1399
sV\u8a87
I1341
sV\u6906
I7959
sV\u968f
I8342
sV\u750e
I4178
sV\u6297
I4999
sV\u6e9f
I2478
sV\u9020
I1415
sV\u74a3
I1687
sV\u6e34
I1989
sV\u95b9
I7463
sV\u58bb
I3168
sV\u7a3c
I2773
sV\u67c5
I8760
sV\u8946
I5563
sV\u73cd
I104
sV\u524c
I4483
sV\u79d1
I3234
sV\u7fd5
I4482
sV\u5e54
I2194
sV\u82d7
I2353
sV\u88db
I2643
sV\u8edf
I2707
sV\u6d5e
I7534
sV\u51e1
I1672
sV\u9ae7
I8360
sV\u7f6a
I672
sV\u8870
I478
sV\u6cf3
I3874
sV\u8e74
I3682
sV\u72f7
I5406
sV\u5176
I191
sV\u78fb
I3855
sV\u8101
I6210
sV\u6684
I603
sV\u6c88
I840
sV\u500b
I2933
sV\u560f
I7350
sV\u9911
I7060
sV\u7890
I8330
sV\u9f15
I4612
sV\u7e94
I1742
sV\u6519
I3103
sV\u6b1d
I6770
sV\u7121
I218
sV\u7725
I6197
sV\u5ca8
I4264
sV\u862f
I8295
sV\u65ae
I7339
sV\u6bb2
I6216
sV\u983b
I1709
sV\u7dbe
I1998
sV\u86c4
I4071
sV\u8cc8
I1453
sV\u4fca
I506
sV\u92cc
I7446
sV\u764f
I7575
sV\u7c53
I8155
sV\u5bd2
I18
sV\u9ed4
I3415
sV\u8559
I1615
sV\u64d8
I213
sV\u6adc
I5106
sV\u4e5f
I971
sV\u9161
I1927
sV\u76e4
I134
sV\u9d69
I4499
sV\u636d
I7256
sV\u7579
I2635
sV\u9dfe
I2649
sV\u918b
I6108
sV\u528d
I3174
sV\u978f
I4294
sV\u5e95
I1167
sV\u699b
I3917
sV\u6f9f
I6181
sV\u9120
I2531
sV\u75a3
I6388
sV\u9724
I4806
sV\u5826
I2561
sV\u9d28
I3954
sV\u82ad
I1268
sV\u6930
I5231
sV\u6f34
I5338
sV\u7538
I1493
sV\u59bb
I3509
sV\u8846
I1381
sV\u6cc9
I1447
sV\u8e4a
I1275
sV\u78d1
I5938
sV\u5950
I8263
sV\u665a
I302
sV\u6c5e
I3458
sV\u7262
I2515
sV\u5ce9
I3158
sV\u7e6a
I4545
sV\u67ef
I1685
sV\u6df3
I4096
sV\u5076
I732
sV\u79fb
I903
sV\u7fff
I7885
sV\u8001
I329
sV\u6180
I1792
sV\u8605
I4260
sV\u6d88
I779
sV\u510b
I3473
sV\u920d
I3450
sV\u9811
I3115
sV\u9e15
I4795
sV\u7f94
I3986
sV\u8096
I5248
sV\u6a1d
I5543
sV\u8c9e
I2698
sV\u7021
I7812
sV\u51a0
I130
sV\u7625
I6621
sV\u57a4
I6603
sV\u7c29
I7789
sV\u5da8
I7900
sV\u812b
I542
sV\u9eaa
I5309
sV\u872f
I7979
sV\u64ae
I4643
sV\u5439
I1078
sV\u993b
I6574
sV\u76ba
I1527
sV\u7cbe
I811
sV\u81c0
I7485
sV\u87c4
I460
sV\u6b47
I2118
sV\u4eca
I194
sV\u93cc
I6168
sV\u99d0
I2708
sV\u7d53
I8262
sV\u9061
I6568
sV\u71e0
I3508
sV\u5563
I6097
sV\u7de8
I2367
sV\u626d
I6880
sV\u84ee
I1780
sV\u8af2
I6814
sV\u55f8
I7688
sV\u96fa
I7921
sV\u7a7d
I5519
sV\u6d0a
I8239
sV\u518d
I300
sV\u300c
I5767
sV\u770e
I7014
sV\u9e93
I2722
sV\u7912
I8601
sV\u5d95
I8097
sV\u8618
I7449
sV\u78a7
I114
sV\u5d2a
I6308
sV\u4eb3
I8070
sV\u8db5
I7648
sV\u6c34
I316
sV\u50b7
I1292
sV\u97b9
I5604
sV\u63c1
I5341
sV\u65c5
I880
sV\u6fc9
I7872
sV\u4e48
I3676
sV\u5a50
I8363
sV\u9952
I1773
sV\u80d7
I6622
sV\u6356
I6011
sV\u8adb
I4851
sV\u6f5e
I3979
sV\u53e1
I6081
sV\u96e3
I202
sV\u7162
I3902
sV\u55e5
I7378
sV\u98e7
I3216
sV\u7b66
I5457
sV\u5fe9
I5962
sV\u7d6a
I4367
sV\u64ef
I5531
sV\u8a70
I4080
sV\u9678
I1777
sV\u5f7e
I6100
sV\u8301
I5228
sV\u6280
I6395
sV\u8f09
I2830
sV\u6e88
I6184
sV\u540f
I2107
sV\u5e13
I7929
sV\u7c94
I8310
sV\u8396
I1227
sV\u859a
I6075
sV\u52a0
I1552
sV\u91a2
I3584
sV\u7525
I3934
sV\u54a4
I4860
sV\u5ea8
I7373
sV\u822b
I3431
sV\u842f
I8602
sV\u67ae
I7598
sV\u7fbe
I4868
sV\u6643
I2615
sV\u84c4
I3221
sV\u724b
I2181
sV\u57ce
I230
sV\u9ad0
I7406
sV\u59d2
I6499
sV\u8759
I2383
sV\u72e0
I7734
sV\u5663
I8365
sV\u74e4
I7081
sV\u9f69
I2329
sV\u7779
I3033
sV\u58fc
I8670
sV\u8783
I7631
sV\u8987
I8506
sV\u4e89
I8139
sV\u6c0a
I6295
sV\u508d
I1561
sV\u958f
I3823
sV\u7812
I6698
sV\u8718
I4063
sV\u6b9b
I6530
sV\u4e1e
I3492
sV\u5022
I6380
sV\u79a7
I5279
sV\u80ad
I7776
sV\u612c
I4533
sV\u6d34
I3150
sV\u51b7
I468
sV\u96b9
I4748
sV\u7738
I1584
sV\u64c5
I3758
sV\u8a46
I4594
sV\u6ec9
I4393
sV\u4f48
I8510
sV\u514c
I5939
sV\u7ad1
I6610
sV\u5b50
I898
sV\u9852
I4168
sV\u5d54
I8596
sV\u8ddf
I6718
sV\u6e5e
I7364
sV\u97e3
I8154
sV\u54e5
I3752
sV\u5ee9
I3433
sV\u8b70
I486
sV\u8d74
I3210
sV\u9778
I3361
sV\u5e7e
I763
sV\u8201
I3559
sV\u6380
I4140
sV\u8e09
I5031
sV\u6f88
I2355
sV\u530b
I8712
sV\u900d
I2759
sV\u550f
I5395
sV\u9a11
I6059
sV\u7b90
I4704
sV\u5f13
I1854
sV\u9c15
I5152
sV\u681d
I4277
sV\u8e9e
I4187
sV\u53a0
I5924
sV\u90a2
I5028
sV\u7425
I2665
sV\u9aa6
I6305
sV\u5fa8
I4459
sV\u832b
I1683
sV\u852f
I8296
sV\u66ae
I1583
sV\u8f33
I6486
sV\u68b2
I3627
sV\u5639
I4426
sV\u9b3b
I4028
sV\u74ba
I5601
sV\u9d3f
I3244
sV\u83c0
I8508
sV\u91cc
I1506
sV\u754f
I676
sV\u58d2
I7580
sV\u9dd4
I7340
sV\u8659
I5142
sV\u67d8
I3167
sV\u885d
I858
sV\u69dc
I8152
sV\u73e0
I464
sV\u5967
I4158
sV\u606d
I670
sV\u6702
I5732
sV\u8e87
I4133
sV\u6b0a
I675
sV\u5b95
I6430
sV\u6697
I669
sV\u8018
I4134
sV\u6c9b
I4043
sV\u8e1c
I8444
sV\u6a9f
I7702
sV\u5722
I7671
sV\u5d26
I1551
sV\u5b2a
I1880
sV\u87ad
I1174
sV\u662c
I8163
sV\u5abf
I1462
sV\u65c1
I1929
sV\u8b4a
I5598
sV\u77cd
I1851
sV\u564c
I7314
sV\u914e
I3839
sV\u7dd1
I7849
sV\u5c50
I470
sV\u9f52
I141
sV\u6556
I4850
sV\u4fdd
I286
sV\u695e
I3907
sV\u7762
I4618
sV\u53e5
I809
sV\u9ee7
I6438
sV\u7d66
I3224
sV\u64eb
I7088
sV\u866c
I3112
sV\u62ef
I1477
sV\u68f3
I8209
sV\u9078
I1793
sV\u7cfb
I4345
sV\u9e7c
I7603
sV\u7aff
I1605
sV\u8305
I1484
sV\u6284
I2389
sV\u8909
I5829
sV\u970d
I4233
sV\u8596
I8507
sV\u7325
I6261
sV\u58a8
I1148
sV\u9baa
I5852
sV\u61ae
I5762
sV\u9c3b
I5488
sV\u79be
I2919
sV\u84c0
I4742
sV\u6043
I674
sV\u744b
I7452
sV\u96cc
I3110
sV\u5fd2
I4365
sV\u9ad4
I1896
sV\u60d8
I5140
sV\u8f5d
I3371
sV\u74e0
I3467
sV\u78e8
I3172
sV\u676d
I3704
sV\u81ee
I6107
sV\u50f8
I8358
sV\u7f7d
I5761
sV\u5efc
I4548
sV\u6602
I995
sV\u958b
I126
sV\u6a0a
I2913
sV\u700e
I7564
sV\u5c91
I2607
sV\u5a95
I7251
sV\u6797
I886
sV\u8f1c
I6251
sV\u9928
I1716
sV\u672c
I331
sV\u8ab5
I6876
sV\u5dbb
I6894
sV\u9ebd
I6086
sV\u5bbf
I377
sV\u64c1
I1251
sV\u62c5
I8523
sV\u8c46
I2174
sV\u68c9
I5458
sV\u76cd
I5705
sV\u574c
I7566
sV\u904e
I573
sV\u5d50
I922
sV\u5b54
I3268
sV\u8ddb
I3835
sV\u4edd
I5067
sV\u54e1
I4668
sV\u91e3
I360
sV\u7662
I5258
sV\u7c66
I7806
sV\u8d70
I2229
sV\u69f3
I1194
sV\u8b74
I2828
sV\u5476
I5287
sV\u9178
I2084
sV\u7dfb
I2112
sV\u527a
I6321
sV\u7bff
I7769
sV\u587e
I5781
sV\u8401
I7611
sV\u8205
I4513
sV\u6384
I4295
sV\u4f07
I6723
sV\u778c
I7868
sV\u530f
I1500
sV\u9a15
I4949
sV\u7b94
I1918
sV\u6019
I7335
sV\u829a
I8595
sV\u6e1d
I4555
sV\u889e
I6475
sV\u7421
I8742
sV\u59a8
I335
sV\u852b
I1754
sV\u832f
I2945
sV\u60ae
I5960
sV\u6eb2
I7837
sV\u9d3b
I852
sV\u5e3d
I1106
sV\u78be
I5200
sV\u754b
I4369
sV\u50ce
I5516
sV\u7953
I6186
sV\u6fdc
I5675
sV\u73e4
I8227
sV\u5f67
I6672
sV\u80ee
I7257
sV\u51f8
I4143
sV\u7e7d
I4707
sV\u5ffc
I7705
sV\u98fe
I1430
sV\u8283
I7684
sV\u6502
I7523
sV\u6f06
I3921
sV\u968b
I2516
sV\u558d
I6856
sV\u908f
I6279
sV\u5f91
I511
sV\u8218
I8028
sV\u689f
I1512
sV\u9024
I6280
sV\u7ca7
I3175
sV\u5f26
I644
sV\u592a
I610
sV\u642c
I6104
sV\u8fb1
I1271
sV\u6e30
I5217
sV\u6834
I4468
sV\u54b7
I1813
sV\u67c1
I6378
sV\u61c5
I7464
sV\u8f46
I2332
sV\u75cd
I4700
sV\u544c
I3703
sV\u9d52
I5728
sV\u79d5
I6984
sV\u5854
I3319
sV\u6756
I1335
sV\u8edb
I3893
sV\u615a
I2549
sV\u88df
I2510
sV\u92e3
I6274
sV\u7562
I1810
sV\u9ce7
I2959
sV\u7f66
I7400
sV\u5be9
I3476
sV\u846c
I2143
sV\u8e70
I3064
sV\u6af3
I2187
sV\u74f7
I3323
sV\u9278
I7545
sV\u5b7e
I8588
sV\u8105
I5101
sV\u6084
I3442
sV\u500f
I3932
sV\u7894
I4543
sV\u8796
I7078
sV\u819a
I2111
sV\u8b9e
I6177
sV\u7721
I6777
sV\u95a2
I8723
sV/
I7896
sV\u6db2
I2131
sV\u77b6
I7296
sV\u5339
I1916
sV\u71ba
I8371
sV\u5d3d
I7531
sV\u7bbe
I5583
sV\u86c0
I6055
sV\u6243
I1113
sV\u80c4
I4340
sV\u9ed0
I8472
sV\u5dd2
I3690
sV\u98d4
I8091
sV\u62d8
I2861
sV\u6cdc
I7858
sV\u9761
I3574
sV\u9165
I2226
sV\u5c67
I2113
sV\u656d
I7363
sV\u4ef0
I1960
sV\u6975
I198
sV\u97f6
I2452
sV\u7379
I6558
sV\u52f8
I1922
sV\u9bfe
I7602
sV\u978b
I3177
sV\u548d
I3406
sV\u9b93
I4941
sV\u6597
I207
sV\u8318
I111
sV\u8d1c
I6809
sV\u9720
I7934
sV\u9b28
I5224
sV\u582a
I1282
sV\u84ad
I6000
sV\u652c
I4129
sV\u6f30
I8304
sV\u88b5
I4095
sV\u7d3c
I5446
sV\u60c5
I45
sV\u6ac9
I6719
sV\u924e
I6571
sV\u9c52
I5491
sV\u78d5
I5349
sV\u5954
I1237
sV\u605a
I5983
sV\u50e5
I3477
sV\u5ae9
I2083
sV\u67eb
I8728
sV\u856c
I7994
sV\u6bf3
I3635
sV\u8974
I6864
sV\u7ffb
I2207
sV\u8005
I266
sV\u570b
I234
sV\u940d
I5740
sV\u9e11
I4226
sV\u7994
I8226
sV\u8696
I7157
sV\u6219
I8774
sV\u809a
I5482
sV\u8a9e
I358
sV\u7621
I3306
sV\u57a0
I4597
sV\u7025
I8285
sV\u51a4
I2812
sV\u872b
I8447
sV\u812f
I2315
sV\u4e31
I5392
sV\u8b33
I3501
sV\u6cb2
I5410
sV\u9f3b
I393
sV\u7abe
I6123
sV\u87c0
I3124
sV\u6343
I7386
sV\u81c4
I7944
sV\u4ec6
I6237
sV\u774b
I5288
sV\u95cc
I1544
sV\u7b53
I8245
sV\u5cd2
I5264
sV\u99d4
I6524
sV\u4f5b
I1941
sV\u8c5d
I8612
sV\u6ddc
I8463
sV\u9661
I3335
sV\u9065
I8671
sV\u9a69
I398
sV\u7be8
I8752
sV\u646d
I5292
sV\u82ee
I6938
sV\u96f6
I1662
sV\u7279
I359
sV\u53f8
I621
sV\u6b02
I7298
sV\u6106
I652
sV\u5b8d
I8113
sV\u9e8f
I2011
sV\u7312
I5909
sV\u6a97
I5674
sV\u609b
I7216
sV\u821c
I643
sV\u7ca3
I7804
sV\u72a7
I3955
sV\u572a
I8582
sV\u6a2c
I8482
sV\u87b5
I8287
sV\u6634
I6113
sV\u9db9
I8380
sV\u7c38
I5369
sV\u69c1
I5301
sV\u8146
I6436
sV\u71d1
I7718
sV\u8ad7
I6368
sV\u6956
I8466
sV\u80db
I2272
sV\u86df
I1173
sV\u655e
I3155
sV\u59e1
I5964
sV\u7166
I2594
sV\u68eb
I7198
sV\u8a6c
I5624
sV\u6eef
I311
sV\u8070
I2463
sV\u9c78
I1150
sV\u70fb
I7567
sV\u557e
I3039
sV\u8f05
I2807
sV\u8509
I8086
sV\u6488
I5259
sV\u580b
I5286
sV\u9b0d
I8620
sV\u7a8c
I8156
sV\u8996
I2396
sV\u6d19
I4922
sV\u58a0
I4503
sV\u91a6
I7461
sV\u54a8
I1555
sV\u9a37
I2273
sV\u7fba
I7470
sV\u963f
I2323
sV\u75be
I1302
sV\u88c0
I5198
sV\u6c43
I6953
sV\u8ec4
I6014
sV\u6247
I944
sV\u62dc
I408
sV\u5c63
I2365
sV\u83f2
I1539
sV\u6775
I2656
sV\u7d79
I3237
sV\u6a02
I1060
sV\u660a
I3922
sV\u5a8d
I8543
sV\u9f8f
I6667
sV\u7c0e
I6995
sV\u5091
I4213
sV\u9593
I208
sV\u831c
I2321
sV\u7da3
I3015
sV\u5026
I1844
sV\u6b2c
I6636
sV\u4faf
I905
sV\u80b1
I2795
sV\u6734
I4862
sV\u5bb7
I5795
sV\u68c1
I5943
sV\u6ec5
I1156
sV\u8046
I616
sV\u64c9
I8594
sV\u5b4c
I4561
sV\u81db
I5472
sV\u87df
I8455
sV\u9de3
I7573
sV\u7a62
I3054
sV\u5ee5
I7922
sV\u54e9
I8538
sV\u69eb
I6150
sV\u8b6c
I4607
sV\u6fef
I2737
sV\u8170
I917
sV\u65f3
I8647
sV\u8774
I4761
sV\u7bf7
I3366
sV\u71fb
I6559
sV\u5e7a
I7265
sV\u937c
I2139
sV\u8801
I4383
sV\u6f84
I2569
sV\u6588
I6016
sV\u5f0f
I4360
sV\u9011
I7562
sV\u8896
I1525
sV\u8e9a
I6187
sV\u849e
I5733
sV\u59a0
I7472
sV\u90a6
I3309
sV\u55a8
I8162
sV\u892b
I5350
sV\u96aa
I679
sV\u8f2f
I5800
sV\u6cae
I4151
sV\u5c39
I2499
sV\u973f
I7342
sV\u89c0
I2222
sV\u8fc4
I6095
sV\u7f4f
I5325
sV\u91d0
I445
sV\u52d2
I2433
sV\u97d4
I7134
sV\u6dd8
I3671
sV\u63dc
I2436
sV\u9861
I6823
sV\u5367
I6690
sV\u8cee
I4665
sV\u98f6
I4349
sV\u7c79
I8311
sV\u727d
I1419
sV\u8e83
I5596
sV\u8087
I420
sV\u598d
I1695
sV\u6897
I3580
sV\u8e18
I6535
sV\u801c
I4404
sV\u5922
I842
sV\u70a7
I6605
sV\u9628
I5690
sV\u6230
I78
sV\u6434
I3683
sV\u52bb
I7536
sV\u91bd
I4075
sV\u703c
I4900
sV\u54bf
I1195
sV\u6dc5
I2541
sV\u8346
I2331
sV\u854a
I4792
sV\u584c
I5169
sV\u9f4e
I4304
sV\u9152
I15
sV\u75d5
I1541
sV\u4fd9
I7211
sV\u82db
I5214
sV\u6d5a
I3865
sV\u675e
I1706
sV\u5be1
I3339
sV\u5de5
I2041
sV\u7366
I6848
sV\u756a
I3267
sV\u6cef
I4750
sV\u66f3
I2742
sV\u78f7
I3802
sV\u72fb
I5652
sV\u5d7a
I4911
sV\u907c
I2137
sV\u74ff
I7007
sV\u8b01
I1805
sV\u6a80
I1999
sV\u4e03
I1668
sV\u8d05
I4107
sV\u6c84
I4706
sV\u8709
I3989
sV\u6688
I1703
sV\u788c
I4207
sV\u5c0f
I872
sV\u8b96
I4782
sV\u6f19
I4714
sV\u4e98
I5808
sV\u8d9a
I7026
sV\u7b21
I7662
sV\u5aa0
I6934
sV\u93a6
I5098
sV\u7729
I3888
sV\u56a8
I6662
sV\u6fae
I5701
sV\u61b2
I3942
sV\u9837
I4738
sV\u7dba
I1887
sV\u513d
I7474
sV\u6e43
I6133
sV\u8cc4
I6817
sV\u6047
I7223
sV\u60dc
I1284
sV\u7ae0
I1953
sV\u5e63
I4105
sV\u9769
I4021
sV\u696d
I1907
sV\u8fee
I6467
sV\u6371
I6924
sV\u81f2
I7252
sV\u6575
I2494
sV\u7f79
I3024
sV\u9dfa
I576
sV\u717d
I7401
sV\u8187
I7390
sV\u640a
I5500
sV\u588d
I6451
sV\u5291
I7053
sV\u9793
I5605
sV\u8f18
I7301
sV\u639b
I4617
sV\u659f
I3332
sV\u7fa3
I800
sV\u5226
I4578
sV\u82b1
I22
sV\u59b7
I7272
sV\u7f38
I1472
sV\u53bb
I70
sV\u90bd
I4062
sV\u6ac1
I4885
sV\u8842
I6632
sV\u6cc5
I7621
sV\u66c9
I1021
sV\u5350
I6032
sV\u9052
I6137
sV\u4ed9
I164
sV\u6c5a
I1097
sV\u85df
I4725
sV\u665e
I2963
sV\u5ae1
I4852
sV\u5ce5
I8142
sV\u91e7
I5433
sV\u6beb
I444
sV\u746a
I3809
sV\u67f3
I282
sV\u5c7a
I8560
sV\u75ff
I7393
sV\u4f03
I6381
sV\u5b0b
I3171
sV\u5713
I1035
sV\u8a96
I7670
sV\u6e19
I2604
sV\u4f98
I8614
sV\u601d
I301
sV\u5da4
I5314
sV\u8b2b
I2104
sV\u6eae
I8553
sV\u60b2
I1533
sV\u7ab6
I5662
sV\u76be
I6821
sV\u6147
I3082
sV\u87c8
I8465
sV\u7b4b
I2906
sV\u7d4f
I4630
sV\u93d0
I6754
sV\u95d4
I1800
sV\u8e59
I1599
sV\u6fd8
I5711
sV\u7be0
I4787
sV\u5f63
I7453
sV\u7de4
I3505
sV\u5167
I1700
sV\u686d
I6881
sV\u6475
I4200
sV\u7e79
I4976
sV\u5ff8
I536
sV\u707d
I1423
sV\u6f02
I3868
sV\u5f8d
I6816
sV\u790e
I5581
sV\u5591
I7299
sV\u78a3
I3811
sV\u5f22
I6199
sV\u9a24
I8174
sV\u532a
I4109
sV\u8fad
I1497
sV\u6e2c
I1420
sV\u6430
I6405
sV\u6234
I952
sV\u5eb7
I2840
sV\u99b9
I7346
sV\u54bb
I6592
sV\u763c
I4244
sV\u8f42
I2752
sV\u6bc5
I4739
sV\u61c9
I162
sV\u7fcd
I8234
sV\u5e4c
I3864
sV\u994e
I6051
sV\u75d1
I7799
sV\u9752
I752
sV\u5254
I5348
sV\u84db
I8766
sV\u82df
I5080
sV\u615e
I5846
sV\u5de1
I2014
sV\u98e3
I7254
sV\u5be5
I767
sV\u7566
I2264
sV\u6ceb
I4400
sV\u736a
I7302
sV\u8e6c
I2428
sV\u60f3
I138
sV\u5b7a
I3357
sV\u6a84
I2412
sV\u8109
I2942
sV\u5c0b
I685
sV\u7e8c
I2248
sV\u7490
I7852
sV\u8d96
I7130
sV\u8b9a
I5824
sV\u671d
I966
sV\u7d21
I4740
sV\u9fa2
I8182
sV\u7b25
I3647
sV\u95a6
I8179
sV\u93aa
I4895
sV\u4f2d
I8186
sV\u69ae
I1666
sV\u8033
I915
sV\u67b2
I6758
sV\u923f
I2134
sV\u71be
I3563
sV\u8cc0
I1736
sV\u6843
I115
sV\u4fc2
I1634
sV\u8ac4
I7597
sV\u9ecc
I6504
sV\u57d2
I5564
sV\u68d8
I2601
sV\u875d
I6958
sV\u66dc
I932
sV\u9d61
I2218
sV\u7ce0
I3913
sV\u9169
I875
sV\u6f6d
I1166
sV\u87f2
I2936
sV\u58f8
I6753
sV\u777d
I4240
sV\u8983
I5154
sV\u6406
I1425
sV\u9d8b
I6421
sV\u620a
I3983
sV\u6f97
I1396
sV\u8918
I6846
sV\u659b
I4948
sV\u871c
I157
sV\u5e22
I7827
sV\u5426
I2121
sV\u522a
I4821
sV\u8ead
I3456
sV\u6f2c
I2173
sV\u84b1
I6514
sV\u5fb7
I1627
sV\u55bb
I3826
sV\u96bd
I6031
sV\u773c
I253
sV\u6cc1
I994
sV\u8e42
I7794
sV\u8446
I1498
sV\u60c9
I7659
sV\u5f4c
I648
sV\u5550
I5864
sV\u5354
I4361
sV\u83df
I2946
sV\u605e
I8625
sV\u7e62
I4730
sV\u7466
I7831
sV\u6deb
I2197
sV\u6bef
I3657
sV\u5a7a
I5201
sV\u977c
I6089
sV\u8c01
I7986
sV\u6b84
I273
sV\u8009
I6791
sV\u7f8c
I3786
sV\u9215
I8261
sV\u8a9a
I2270
sV\u7c21
I1977
sV\u5da0
I2827
sV\u5ba4
I1245
sV\u7029
I6351
sV\u4e2d
I56
sV\u9f37
I7700
sV\u7aba
I989
sV\u563d
I8056
sV\u6747
I6729
sV\u81c8
I8654
sV\u7b4f
I3967
sV\u95d0
I3648
sV\u4f57
I5365
sV\u8859
I3514
sV\u67dc
I5971
sV\u7de0
I5452
sV\u9a65
I3195
sV\u7be4
I7191
sV\u9069
I2439
sV\u9cf6
I2715
sV\u767d
I363
sV\u90fe
I7311
sV\u4f81
I6450
sV\u9e8b
I1133
sV\u9293
I4698
sV\u7512
I5642
sV\u5195
I247
sV\u8a18
I1517
sV\u609f
I3208
sV\u7aa3
I1946
sV\u5d22
I3274
sV\u9824
I1554
sV\u74a7
I2593
sV\u4eab
I5441
sV\u512a
I1864
sV\u5cb7
I4320
sV\u9bb9
I6500
sV\u56bb
I8220
sV\u95bd
I6069
sV\u743c
I8136
sV\u6fc1
I90
sV\u69c5
I7127
sV\u63c9
I2063
sV\u814a
I7395
sV\u7dcd
I6570
sV\u9b4e
I4414
sV\u77d1
I7857
sV\u5650
I6725
sV\u71d5
I1031
sV\u86db
I4651
sV\u695a
I869
sV\u5fe1
I6064
sV\u9ae3
I3936
sV\u7d62
I4189
sV\u59e5
I4026
sV\u7766
I939
sV\u53e9
I3878
sV\u6eeb
I1504
sV\u8c6c
I6328
sV\u62f3
I3419
sV\u76fb
I4115
sV\u947c
I6910
sV\u8309
I7447
sV\u9711
I1715
sV\u7690
I7693
sV\u5213
I5623
sV\u6b19
I7313
sV\u651d
I2072
sV\u839e
I7215
sV\u5ea0
I5782
sV\u9da2
I6420
sV\u97a6
I2153
sV\u7329
I2122
sV\u91aa
I2447
sV\u8233
I3046
sV\u65b2
I4510
sV\u7fb6
I582
sV\u963b
I2049
sV\u79ba
I4982
sV\u553d
I8349
sV\u8ec0
I3468
sV\u6447
I8688
sV\u784f
I8460
sV\u7253
I3170
sV\u8b59
I2490
sV\u855d
I7058
sV\u9f61
I3851
sV\u72e8
I6178
sV\u6771
I735
sV\u6175
I1358
sV\u4e81
I5213
sV\u6c02
I6433
sV\u8587
I1266
sV\u6606
I1655
sV\u600a
I6744
sV\u4e16
I473
sV\u9f20
I1631
sV\u9924
I6529
sV\u9328
I6700
sV\u502a
I4391
sV\u6134
I183
sV\u5db7
I6171
sV\u9ab9
I7630
sV\u6ec1
I6869
sV\u8646
I5019
sV\u62c9
I3354
sV\u804a
I1600
sV\u5d4c
I3898
sV\u9a4e
I5561
sV\u5750
I896
sV\u9452
I1328
sV\u5154
I655
sV\u8dd7
I5078
sV\u6e56
I1161
sV\u87db
I6493
sV\ue85a
I6970
sV\u81df
I5295
sV\u625e
I4703
sV\u5ee1
I5899
sV\u7c62
I1882
sV\u58e5
I5814
sV\u52e9
I5698
sV\u6feb
I2769
sV\u8d6c
I1051
sV\u63f3
I5254
sV\u8174
I3050
sV\u5e76
I5270
sV\u77fb
I3502
sV\u71ff
I7200
sV\u6f80
I1968
sV\u8805
I2668
sV\u8209
I362
sV\u6388
I3259
sV\u5f0b
I848
sV\u9c0d
I8542
sV\u7d8c
I6232
sV\u590f
I1775
sV\u7790
I8703
sV\u9015
I3134
sV\u7194
I6576
sV\u6a19
I991
sV\u889a
I7336
sV\u5fa0
I6799
sV\u7825
I4084
sV\u59a4
I5679
sV\u53a8
I8112
sV\u90aa
I3687
sV\u6aae
I5937
sV\u64b2
I1288
sV\u78ba
I5390
sV\u6b43
I6386
sV\u7f4b
I7540
sV\u794f
I6201
sV\u7353
I8580
sV\u6bd8
I3963
sV\u65dc
I4605
sV\u7fe0
I142
sV\u5b63
I1649
sV\u9865
I2385
sV\u79e4
I5020
sV\u6c6d
I4972
sV\u8aee
I5501
sV\u9ef6
I7165
sV\u7a79
I754
sV\u5bf8
I1405
sV\u747d
I7744
sV\u92fe
I4211
sV\u808b
I3681
sV\u868f
I7110
sV\u8c93
I6238
sV\u6b12
I2633
sV\u7297
I6686
sV\u9418
I1768
sV\u8624
I7068
sV\u722c
I3873
sV\u99b1
I4647
sV\u7830
I4637
sV\u5cb3
I591
sV\u85b9
I7512
sV\u71c1
I6191
sV\u7dc9
I7063
sV\u5c48
I2251
sV\u9f4a
I1272
sV\u854e
I5139
sV\u6fd5
I3095
sV\u92d7
I8022
sV\u7156
I2108
sV\u98db
I1040
sV\u775a
I6196
sV\u9edf
I7528
sV\u7d5e
I5625
sV\u6362
I8666
sV\u8ae7
I2600
sV\u6966
I8178
sV\u76ef
I7672
sV\u9870
I2268
sV\u62f7
I5932
sV\u68fb
I6124
sV\u8a7c
I5553
sV\u6eff
I856
sV\u5403
I3573
sV\u9705
I5203
sV\u7684
I523
sV\u9d09
I378
sV\u830d
I2767
sV\u6890
I7678
sV\u8f15
I96
sV\u6e94
I6454
sV\u9196
I5784
sV\u979a
I4688
sV\u6121
I7633
sV\u83a2
I2090
sV\u89a6
I7746
sV\u6d29
I4011
sV\u532d
I8402
sV\u962f
I7241
sV\u5931
I2393
sV\u5f35
I424
sV\u8237
I1609
sV\u61b6
I10
sV\u883b
I2235
sV\u96c4
I531
sV\u59c6
I8632
sV\u664f
I3144
sV\u8ed4
I5626
sV\u5257
I6545
sV\u74d8
I5590
sV\u5e5f
I3773
sV\u60e0
I2398
sV\u8765
I5745
sV\u8d69
I4841
sV\u6ce8
I2326
sV\u95ee
I8099
sV\u7f75
I8100
sV\u87fa
I8241
sV\u9583
I862
sV\u5685
I7879
sV\u7806
I4542
sV\u818b
I6245
sV\u7e0a
I1641
sV\u4e95
I1444
sV\u5016
I3176
sV0
I5776
sV\u4e2a
I3737
sV\u92ad
I6805
sV\u7930
I5966
sV\u9eb5
I6209
sV\u84b9
I3368
sV\u6538
I4551
sV\u4fbf
I495
sV\u5140
I3414
sV\u9846
I3620
sV\u7cc9
I4066
sV\u62cd
I2133
sV\u8a52
I8273
sV\u6ed5
I4059
sV\u4f54
I6861
sV\u93d7
I3002
sV\u99db
I4120
sV\u7c5e
I376
sV\u936c
I8275
sV\u77ef
I2731
sV\u8578
I7353
sV\u9001
I1069
sV\u7d88
I4930
sV\u820d
I1008
sV\u638c
I165
sV\u5598
I2335
sV\u5b9c
I803
sV\u6021
I2067
sV\u6625
I27
sV\u8eaa
I6960
sV\u5831
I1000
sV\u60b6
I1903
sV\u893b
I6418
sV\u8f3f
I1466
sV\u6cbe
I2130
sV\u91c0
I2316
sV\u7b47
I1336
sV\u614b
I1528
sV\u5eca
I1252
sV\u83cc
I3930
sV\u674f
I2076
sV\u8fd4
I3018
sV\u5357
I936
sV\u8665
I7227
sV\u67e4
I7555
sV\u6de8
I1373
sV\u53ec
I2980
sV\u6479
I5896
sV\u86fa
I2422
sV\u8cfe
I5386
sV\u9683
I8321
sV\u7b06
I7355
sV\u5f89
I3229
sV\u828b
I4466
sV\u7d0a
I6563
sV\u670e
I6873
sV\u8e93
I1812
sV\u6912
I2688
sV\u5316
I216
sV\u7c9f
I2603
sV\u8220
I5013
sV\u68a7
I2201
sV\u8e28
I8730
sV\u52ab
I664
sV\u91ad
I3834
sV\u702c
I8644
sV\u5eb3
I3735
sV\u9db5
I7113
sV\u7c34
I5171
sV\u89bd
I3200
sV\u683c
I992
sV\u75c5
I252
sV\u5e48
I3633
sV\u9d4a
I2843
sV\u61cd
I7303
sV\u874e
I5520
sV\u90d7
I6223
sV\u755a
I6206
sV\u59dd
I3697
sV\u86e3
I5843
sV\u6162
I1524
sV\u6b66
I113
sV\u72eb
I6804
sV\u6d6a
I58
sV\u906c
I7421
sV\u60f7
I7282
sV\u6afb
I1967
sV\u6cff
I5901
sV\u4f7e
I7125
sV\u7280
I1458
sV\u5807
I6393
sV\u9f09
I4615
sV\u7e88
I3631
sV\u608c
I4302
sV\u6a90
I1942
sV\u6c94
I1786
sV\u3017
I5818
sV\u9396
I1411
sV\u7719
I8483
sV\u5698
I7936
sV\u589c
I1451
sV\u6f29
I5883
sV\u4ea8
I485
sV\u512d
I5946
sV7
I5772
sV\u8a3b
I5454
sV\u8c3f
I968
sV\u6fbe
I8394
sV\u7643
I6593
sV\u51c2
I8771
sV\u5bc6
I106
sV\u9ec8
I6606
sV\u624b
I474
sV\u80cc
I863
sV\u644f
I8408
sV\u6e53
I3925
sV\u9759
I8665
sV\u50ec
I7085
sV\u97ee
I8720
sV\u5af0
I6802
sV\u5cf4
I2927
sV\u83f6
I6195
sV\u85fa
I4491
sV\u5281
I8584
sV\u858f
I5266
sV\u660e
I212
sV\u5216
I5193
sV\u541a
I5572
sV\u7d9f
I7680
sV\u8f28
I8407
sV\u53ab
I4163
sV\u88bd
I8439
sV\u72c1
I3781
sV\u5340
I2764
sV\u9042
I737
sV\u74c5
I3618
sV\u5544
I1913
sV\u9a46
I7168
sV\u5f48
I1581
sV\u25cf
I5613
sV\u864e
I710
sV\u6ad1
I8485
sV\u8852
I4427
sV\u6cd5
I1827
sV\u91d7
I8269
sV\u7256
I2634
sV\u745a
I2724
sV\u58dd
I5994
sV\u9ddf
I4227
sV\u7e5e
I772
sV\u87e3
I6426
sV\u6062
I3845
sV\u89e7
I8418
sV\u6a66
I4951
sV\u6c6a
I2150
sV\u916c
I2205
sV\u7ff3
I3217
sV\u5872
I2517
sV\u61f7
I182
sV\u8778
I3376
sV\u4e7e
I1306
sV\u5703
I1085
sV\u7f88
I2990
sV\u800d
I6600
sV\u6d94
I2376
sV\u9296
I1234
sV\u9e9e
I6915
sV\u6221
I5245
sV\u80a2
I919
sV\u6425
I3579
sV\u8aa6
I3129
sV\u932b
I2395
sV\u8caa
I963
sV\u502d
I6226
sV\u76ae
I1253
sV\u5c35
I8085
sV\u62b6
I5647
sV\u50c2
I4472
sV\u7947
I3641
sV\u634b
I1367
sV\u654f
I1414
sV\u6f53
I4903
sV\u5157
I6890
sV\u5b5b
I3782
sV\u63e0
I6996
sV\u8e69
I7391
sV\u5bf0
I2493
sV\u98f2
I432
sV\u5df4
I2710
sV\u82f6
I7394
sV\u8efe
I4744
sV\u5581
I4173
sV\u9083
I5226
sV\u9e87
I8017
sV\u7d06
I512
sV\u610e
I5534
sV\u9e1c
I5727
sV\u7a9f
I1175
sV\u25a1
I1737
sV\u8420
I7203
sV\u60a3
I1955
sV\u6ea7
I7704
sV\u8828
I3121
sV\u54ab
I1507
sV\u97ad
I517
sV\u9db1
I7347
sV\u7c30
I7753
sV\u58b3
I3199
sV\u6e3c
I6291
sV\u75c1
I8404
sV\u5440
I4599
sV\u9742
I2753
sV\u79c9
I3401
sV\u5848
I7270
sV\u814e
I6620
sV\u6dd1
I3524
sV\u8f52
I8267
sV\u5fdd
I3408
sV\u9adf
I7034
sV\u795e
I154
sV\u80e3
I7951
sV\u6d66
I1192
sV\u966c
I4334
sV\u516e
I2204
sV\u78f3
I8331
sV\u5f72
I6730
sV\u66f7
I3931
sV\u7480
I3605
sV\u7284
I6039
sV\u9909
I1589
sV\u870d
I2902
sV\u668c
I4229
sV\u6c90
I3870
sV\u7119
I4673
sV\u5098
I6114
sV\u939a
I2993
sV\u7f1d
I7759
sV\u5e9c
I2030
sV\u87a2
I2475
sV\u8da6
I6968
sV\u942b
I2884
sV\u572d
I2713
sV\u5d31
I6670
sV\u9833
I3894
sV\u7fb2
I1354
sV\u4f3d
I3908
sV\u69be
I6357
sV\u7043
I4268
sV\u57c2
I7589
sV\u92c4
I7745
sV\u7e47
I2199
sV\u98c8
I6030
sV\u644b
I7021
sV\u6853
I2673
sV\u9159
I7377
sV\u70d8
I988
sV\u8561
I8171
sV\u64e0
I7294
sV\u68e8
I6042
sV\u7d71
I2584
sV\u5cf0
I1764
sV\u7b75
I605
sV\u85f6
I7181
sV\u7602
I8525
sV\u5889
I4279
sV\u858b
I7266
sV\u7a0a
I4010
sV\u600e
I6919
sV\u8993
I1337
sV\u7d9b
I7571
sV\u581e
I2586
sV\u6fa7
I4248
sV\u55ab
I5024
sV\u7d30
I1169
sV\u59b3
I7155
sV\u7b34
I8430
sV\u80b9
I5821
sV\u6f3c
I5411
sV\u5540
I6855
sV\u9642
I2878
sV\u5344
I8692
sV\u5948
I192
sV\u25cb
I5811
sV\u9a4a
I3364
sV\u5edd
I6382
sV\u785e
I7916
sV\u81e3
I41
sV\u9d70
I2547
sV\u79f3
I7927
sV\u5e72
I895
sV\u9b74
I3533
sV\u67f7
I8229
sV\u8178
I219
sV\u6dfb
I1117
sV\u6bff
I5676
sV\u7384
I773
sV\u5f07
I7895
sV\u678c
I4292
sV\u8a15
I6083
sV\u929a
I7681
sV\u7e1d
I7462
sV\u5f9c
I6912
sV\u6829
I6208
sV\u8aaa
I807
sV\u932f
I2403
sV\u70ae
I3594
sV\u5c31
I1746
sV\u9933
I3609
sV\u5a35
I8449
sV\u64b6
I7069
sV\u56c2
I1394
sV\u7f47
I4307
sV\u99c8
I5204
sV\u634f
I8037
sV\u6953
I853
sV\u5757
I8216
sV\u9059
I367
sV\u5b5f
I3684
sV\u8461
I5357
sV\u65e0
I6755
sV\u8869
I7725
sV\u69e8
I6002
sV\u766d
I2969
sV\u9ef2
I6320
sV\u88fe
I1437
sV\u5185
I6921
sV\u9c87
I5489
sV\u5b89
I330
sV\u868b
I3052
sV\u4f91
I4350
sV\u8a93
I2095
sV\u6d12
I4102
sV\u5716
I544
sV\u7e9b
I2721
sV\u511a
I7608
sV\u789f
I7972
sV\u95ad
I3205
sV\u742c
I6102
sV\u50af
I7274
sV\u99b5
I6825
sV\u7834
I522
sV\u5640
I5738
sV\u9f46
I6807
sV\u7bc9
I912
sV\u65cd
I5742
sV\u834e
I6824
sV\u4e50
I8698
sV\u7756
I8740
sV\u53d9
I5990
sV\u9edb
I1720
sV\u5ddd
I214
sV\u98df
I977
sV\u82e3
I5182
sV\u6562
I750
sV\u8ce7
I8170
sV\u6f66
I3610
sV\u696a
I3078
sV\u536e
I7701
sV\u5d72
I6314
sV\u9874
I8574
sV\u64f7
I2492
sV\u8278
I7170
sV\u6efb
I4004
sV\u5203
I1671
sV\u5c07
I89
sV\u9b09
I5593
sV\u7a88
I3992
sV\u850d
I7529
sV\u6e90
I2125
sV\u8915
I5007
sV\u6894
I1257
sV\u5298
I6429
sV\u7d1d
I7465
sV\u9b9e
I5608
sV\u8fa6
I3257
sV\u89aa
I608
sV\u902f
I5830
sV\u5f31
I1796
sV\u7db2
I2652
sV\u67b6
I1267
sV\u61ba
I8055
sV\u96c0
I1936
sV\u90c4
I4286
sV\u59ca
I5297
sV\u88d4
I4160
sV\u5e5b
I3425
sV\u9d5d
I1254
sV\u7cdc
I4914
sV\u66e0
I1556
sV\u8165
I996
sV\u6ae8
I5110
sV\u5ef0
I8120
sV\u9df2
I3642
sV\u81fa
I227
sV\u5085
I1481
sV\u7e06
I8635
sV\u818f
I1290
sV\u620e
I1480
sV\u4e91
I2975
sV\u8b93
I2387
sV\u5616
I5426
sV\u9318
I6445
sV\u501a
I766
sV\u63a3
I3032
sV\u8124
I4814
sV\u4e26
I2695
sV\u8b28
I4241
sV\u752c
I5194
sV\u5bb3
I1431
sV\u7934
I5525
sV\u82b9
I5084
sV\u8cbd
I4265
sV\u6d3c
I5721
sV\u5740
I5133
sV\u5144
I501
sV\u64cd
I1874
sV\u824e
I6834
sV\u6ed1
I2212
sV\u4f50
I3551
sV\u68d5
I5712
sV\u7656
I1545
sV\u52d9
I1322
sV\u99df
I2841
sV\u8de7
I3060
sV\u9f70
I7548
sV\u7bf3
I6590
sV\u69ff
I1205
sV\u7780
I8286
sV\u9005
I2540
sV\u5d07
I2596
sV\u840d
I28
sV\u658c
I8074
sV\u8815
I3715
sV\u6994
I4045
sV\u7c1d
I5045
sV\u84a2
I3062
sV\u6025
I656
sV\u88aa
I4402
sV\u542d
I6566
sV\u912f
I8456
sV\u7cb2
I4711
sV\u5835
I5173
sV\u8f3b
I4385
sV\u60ba
I5618
sV\u7343
I7481
sV\u54c2
I3400
sV\u7d47
I7072
sV\u9bc8
I4232
sV\u89d4
I7506
sV\u5557
I6502
sV\u7ddc
I1965
sV\u8661
I8231
sV\u8a69
I558
sV\u9cf2
I5530
sV\u6279
I2842
sV\u6c7d
I6626
sV\u8afe
I2932
sV\u5f85
I525
sV\u5589
I2286
sV\u888b
I6003
sV\u770a
I5479
sV\u6d0e
I5803
sV\u8493
I5555
sV\u7a97
I1182
sV\u5916
I233
sV\u921c
I8606
sV\u9bad
I5440
sV\u7a2c
I5216
sV\u91b1
I3949
sV\u7030
I2309
sV\u54b3
I2787
sV\u97b5
I2135
sV\u7634
I1305
sV\u6c38
I1732
sV\u83bd
I1352
sV\u79c1
I2086
sV\u9b42
I390
sV\u7fc5
I1287
sV\u5e44
I4067
sV\u9146
I5835
sV\u5448
I1391
sV\u6bcd
I1514
sV\u8352
I1408
sV\u7956
I1826
sV\u90db
I6582
sV\u96df
I8468
sV\u8ce3
I254
sV\u6b62
I1546
sV\u82e7
I1020
sV\u676a
I1944
sV\u9070
I3996
sV\u9674
I6951
sV\u8c78
I3358
sV\u60fb
I1
sV\u4f7a
I6094
sV\u66ff
I2504
sV\u9901
I7818
sV\u5207
I1226
sV\u7488
I6648
sV\u9996
I553
sV\u7d19
I1183
sV\u4ea4
I44
sV\u81a6
I4800
sV\u982b
I8340
sV\u7dae
I8004
sV\u5131
I8528
sV\u73b2
I3118
sV\u803b
I3611
sV\u863f
I2609
sV\u65be
I2923
sV\u98c0
I5018
sV\u7c43
I3410
sV\u5bc2
I317
sV\u9ec4
I6780
sV\u7247
I152
sV\u51c6
I5471
sV\u57ca
I8767
sV\u5a57
I7594
sV\u68e0
I1762
sV\u8f65
I7853
sV\u8569
I1388
sV\u7b6d
I3343
sV\u50f0
I6270
sV\u89f6
I5107
sV\u6d79
I3629
sV\u8ffa
I7351
sV\u637d
I5187
sV\u5881
I5109
sV\u7a02
I4775
sV\u7006
I2738
sV\u898b
I39
sV\u6c0e
I3946
sV\u6212
I1400
sV\u7b97
I617
sV\u719b
I7419
sV\u5e1a
I4600
sV\u541e
I3053
sV\u8f24
I8624
sV\u63a7
I2917
sV\u9aad
I6952
sV\u7b2c
I907
sV\u5faf
I4815
sV\u90b1
I8133
sV\u7130
I3307
sV\u96b5
I7012
sV\u7734
I8611
sV\u6d38
I5405
sV\u82bd
I2189
sV\u633c
I2240
sV\u78c1
I8450
sV\u9a42
I4076
sV\u964a
I7787
sV\u8c4e
I4433
sV\u60d1
I2157
sV\u5cd9
I2771
sV\u7e5a
I1997
sV\u52dd
I1104
sV\u745e
I1091
sV\u8de3
I449
sV\u4ee5
I1646
sV\u79eb
I6215
sV\u5272
I4811
sV\u9774
I3817
sV\u6bf7
I7739
sV\u837c
I3056
sV\u67ff
I5451
sV\u9801
I6074
sV\u9409
I7770
sV\u7588
I8281
sV\u4f0f
I1372
sV\u8011
I6683
sV\u6190
I628
sV\u5d98
I4889
sV\u9e9a
I4794
sV\u721d
I7752
sV\u6821
I2029
sV\u6e25
I2597
sV\u992b
I5517
sV\u86aa
I3785
sV\u5a2d
I4842
sV\u9f2f
I4957
sV\u7cae
I4512
sV\u5635
I6851
sV\u8b37
I7426
sV\u6eba
I1478
sV\u873f
I6338
sV\u64be
I5546
sV\u7d43
I4629
sV\u5ac2
I3753
sV\u95c8
I2563
sV\u694b
I8215
sV\u56ca
I173
sV\u6f4f
I5059
sV\u5b57
I1937
sV\u9c59
I7816
sV\u7dd8
I2178
sV\u8861
I459
sV\u6fe4
I3091
sV\u8469
I3192
sV\u65e8
I3141
sV\u7a6d
I8433
sV\u5bec
I1163
sV\u51f0
I3017
sV\u57f4
I6705
sV\u6c79
I5336
sV\u8efa
I4058
sV\u5b81
I6427
sV\u9e83
I7628
sV\u9087
I2900
sV\u6f0e
I8060
sV\u8693
I4659
sV\u7897
I3973
sV\u5b16
I5137
sV\u9e18
I6588
sV\u729b
I6898
sV\u5d1a
I2711
sV\u749f
I7655
sV\u571e
I3233
sV\u99ad
I2637
sV\u7230
I2368
sV\u7434
I1185
sV\u6e38
I3396
sV\u81bd
I2699
sV\u7bc1
I1047
sV\u5a40
I5873
sV\u77c9
I8431
sV\u69cd
I1843
sV\u8f4e
I8446
sV\u63d1
I6087
sV\u8152
I7003
sV\u98d7
I8329
sV\u7b56
I323
sV\u5fd9
I340
sV\u7d5a
I6520
sV\u51dd
I1490
sV\u775e
I5175
sV\u6962
I6425
sV\u7aeb
I7397
sV\u7cef
I7111
sV\u64ff
I5968
sV\u7a80
I6411
sV\u5e03
I1339
sV\u9d05
I7938
sV\u7688
I5876
sV\u8515
I2320
sV\u9d9a
I2575
sV\u509c
I8509
sV\u979e
I5056
sV\u6b21
I2019
sV\u6d25
I2300
sV\u83a6
I7473
sV\u9a2b
I425
sV\u85aa
I683
sV\u592d
I2730
sV\u7fae
I7541
sV\u5331
I3102
sV\u71b2
I8351
sV\u9ac0
I3531
sV\u7e43
I4516
sV\u7047
I6997
sV\u6a4b
I1734
sV\u55ca
I7469
sV\u88cc
I5979
sV\u4fce
I4341
sV\u5857
I2306
sV\u525b
I771
sV\u70dc
I6517
sV\u4e63
I8050
sV\u66e8
I3377
sV\u796d
I3252
sV\u58ec
I6135
sV\u7371
I8499
sV\u617d
I5238
sV\u87fe
I2347
sV\u7802
I1087
sV\u9187
I4934
sV\u7206
I6073
sV\u8b8b
I5809
sV\u740a
I5113
sV\u8793
I5230
sV\u6012
I1644
sV\u7997
I8236
sV\u5c1a
I1801
sV\u911c
I6222
sV\u8b20
I3705
sV\u6fa3
I6233
sV\u61a7
I4454
sV\u8728
I2704
sV\u98ad
I2356
sV\u792c
I5881
sV\u7330
I5577
sV\u6f38
I820
sV\u7ac1
I6053
sV\u5b40
I3733
sV\u7cc5
I8067
sV\u944a
I4609
sV\u68cd
I8415
sV\u8e4e
I7771
sV\u8052
I2974
sV\u64d5
I6680
sV\u5ed9
I5089
sV\u50dd
I8576
sV\u95df
I8375
sV\u81e7
I2582
sV\u7def
I447
sV\u5e6e
I5396
sV\u9370
I7576
sV\u77f3
I60
sV\u5072
I7599
sV\u9a01
I4632
sV\u5f03
I8192
sV\u9c05
I7367
sV\u5107
I6790
sV\u6390
I5450
sV\u5f98
I2434
sV\u701d
I1836
sV\u6a21
I3328
sV\u6629
I6645
sV\u84aa
I6485
sV\u9d2f
I2650
sV\u5231
I7450
sV\u70b2
I5465
sV\u5435
I8088
sV\u8937
I4487
sV\u4e39
I765
sV\u853f
I8347
sV\u66be
I5251
sV\u9bc0
I5758
sV\u7f43
I7385
sV\u9dc4
I4636
sV\u97c8
I2183
sV\u6753
I3334
sV\u905d
I4573
sV\u555f
I4504
sV\u8a61
I8029
sV\u6de4
I4452
sV\u8669
I8414
sV\u59ec
I1886
sV\u9eee
I5842
sV\u53f0
I2628
sV\u8af6
I6229
sV\u4ff8
I3312
sV\u8cfa
I2818
sV\u86fe
I2312
sV\u5d81
I7389
sV\u5b85
I564
sV\u5189
I2934
sV\u3008
I5790
sV\u730a
I5653
sV\u4f8d
I40
sV\u690e
I5052
sV\u8093
I5889
sV\u5d16
I156
sV\u9818
I1592
sV\u961c
I2624
sV\u511e
I8205
sV\u8028
I5262
sV\u5cab
I2408
sV\u5aaf
I7737
sV\u95b1
I2799
sV\u7430
I4648
sV\u50b3
I638
sV\u4eb7
I6183
sV\u6838
I3599
sV\u87bd
I4521
sV\u5c40
I1360
sV\u71c9
I6901
sV\u5048
I2914
sV\u934a
I3008
sV\u7d56
I7505
sV\u59d9
I6696
sV\u92df
I8743
sV\u715e
I5957
sV\u6f62
I3800
sV\u6566
I3651
sV\u7aef
I2186
sV\u596e
I4531
sV\u9470
I3190
sV\u5772
I7287
sV\u64fb
I3836
sV\u62ff
I7051
sV\u9b05
I6664
sV\u7a84
I1066
sV\u9109
I804
sV\u8511
I4587
sV\u6490
I1547
sV\u6294
I5739
sV\u9d96
I5165
sV\u7919
I2288
sV\u919e
I1519
sV\u85a6
I1618
sV\u83aa
I4218
sV\u5f2d
I2798
sV\u79ae
I937
sV\u5531
I2198
sV\u8e37
I8675
sV\u6db6
I6900
sV\u6bba
I1772
sV\u61be
I5402
sV\u9cc0
I2089
sV\u7843
I8044
sV\u53ca
I1629
sV\u8ecc
I3850
sV\u84d0
I5648
sV\u6053
I4049
sV\u82d4
I1476
sV\u5e57
I7550
sV\u9959
I8372
sV\u76dc
I1429
sV\u6ce0
I2983
sV\u5eec
I1365
sV\u99ee
I3562
sV\u97f2
I6518
sV\u7375
I1857
sV\u6979
I2444
sV\u81fe
I3621
sV\u9787
I1990
sV\u7406
I626
sV\u720a
I7219
sV\u8193
I6175
sV\u7f97
I4301
sV\u5c16
I2190
sV\u9918
I1027
sV\u971c
I854
sV\u5dab
I6099
sV\u7530
I738
sV\u7334
I5026
sV\u6938
I7897
sV\u7ac5
I5298
sV\u5148
I144
sV\u6ecd
I8562
sV\u884e
I4418
sV\u62d5
I7304
sV\u58d9
I5597
sV\u56dd
I4556
sV\u93df
I2585
sV\u705e
I2372
sV\u89e3
I693
sV\u7deb
I6656
sV\u9f6c
I4014
sV\u5672
I7508
sV\u65fb
I4212
sV\u7d80
I8777
sV\u9a05
I3829
sV\u9009
I8708
sV\u8e0d
I5569
sV\u6f8c
I4171
sV\u8411
I7973
sV\u6590
I1978
sV\u8215
I8420
sV\u6029
I537
sV\u5e2d
I578
sV\u9b2f
I6247
sV\u8f37
I7300
sV\u853b
I2243
sV\u9dc0
I5346
sV\u5ec2
I2849
sV\u7747
I2896
sV\u54c6
I5510
sV\u6b4f
I8123
sV\u85d0
I4865
sV\u5f57
I2826
sV\u9859
I4626
sV\u79d8
I2883
sV\u965d
I4691
sV\u77dc
I290
sV\u8c61
I446
sV\u61e8
I7731
sV\u7e6d
I1239
sV\u7471
I6390
sV\u96f2
I235
sV\u6879
I4884
sV\u8afa
I6788
sV\u80fe
I7188
sV\u5f81
I1463
sV\u7d02
I5815
sV\u8e8b
I2868
sV\u8293
I6697
sV\u7c97
I3461
sV\u9a18
I2978
sV\u769b
I5017
sV\u591a
I759
sV\u8e20
I5229
sV\u6aa3
I2466
sV\u5eab
I3711
sV\u58af
I6655
sV\u91b5
I6509
sV\u7034
I7636
sV\u6a38
I2988
sV\u7fc1
I925
sV\u9d42
I8379
sV\u9746
I5905
sV\u73c9
I3901
sV\u914a
I876
sV\u8b4e
I5232
sV\u67d1
I4962
sV\u96db
I2960
sV\u795a
I4356
sV\u90df
I6868
sV\u4fe1
I990
sV\u84e7
I7632
sV\u78ef
I1611
sV\u9670
I504
sV\u4f76
I5042
sV\u847c
I5343
sV\u5a03
I82
sV\u9905
I257
sV\u4e0b
I389
sV\u8d0d
I3643
sV\u6c8c
I3522
sV\u8711
I7019
sV\u6690
I4745
sV\u6094
I2094
sV\u7b19
I1721
sV\u939e
I7455
sV\u8da2
I5638
sV\u75b2
I2783
sV\u5135
I7982
sV\u8c37
I1090
sV\u6fb6
I3019
sV\u803f
I3381
sV\u63be
I4481
sV\u5dc2
I5312
sV\u98c4
I2052
sV\u7447
I4036
sV\u57c6
I7520
sV\u6e4b
I7893
sV\u51ca
I4305
sV\u6253
I2020
sV\u80d4
I8338
sV\u74dc
I1461
sV\u8f61
I3426
sV\u56f0
I197
sV\u50f4
I7848
sV\u89fa
I8075
sV\u5885
I2929
sV\u9587
I8667
sV\u5289
I1465
sV\u898f
I3724
sV\u8393
I1475
sV\u6412
I7305
sV\u5e16
I2025
sV\u9b18
I7793
sV\u719f
I2736
sV\u8f20
I7627
sV\u6ba3
I8599
sV\u65a7
I1684
sV\u8328
I3723
sV\u7d2c
I7425
sV\u96b1
I1578
sV\u90b5
I4053
sV\u8ab9
I5788
sV\u6b38
I4863
sV\u5f40
I5008
sV\u78c5
I7422
sV\u5944
I5434
sV\u5348
I1776
sV\u904a
I1650
sV\u8a4e
I533
sV\u60d5
I3394
sV\u9dd7
I801
sV\u7e56
I3634
sV\u97db
I6211
sV\u4ee1
I7568
sV\u6666
I1125
sV\u7feb
I1731
sV\u606a
I5874
sV\u9d6c
I2438
sV\u9174
I4723
sV\u6df7
I2386
sV\u8b78
I5081
sV\u61ff
I3094
sV\u5b03
I8568
sV\u9805
I3828
sV\u7984
I8650
sV\u5507
I5877
sV\u4f0b
I8023
sV\u6d8c
I3292
sV\u6790
I4111
sV\u8015
I2400
sV\u6194
I2449
sV\u9e96
I8481
sV\u7a19
I7652
sV\u5b98
I717
sV\u559c
I356
sV\u6e21
I1829
sV\u8ca2
I103
sV\u6825
I6737
sV\u6229
I8106
sV\u80aa
I7361
sV\u7aae
I295
sV\u6eb6
I1765
sV\u873b
I5038
sV\u99c4
I7692
sV\u7547
I6735
sV\u50ca
I3097
sV\u8dcc
I4650
sV\u5d57
I6653
sV\u7bd8
I6484
sV\u515f
I7985
sV\u8e61
I7148
sV\u6fe0
I2760
sV\u9aee
I774
sV\u7671
I8459
sV\u647d
I5607
sV\u82fe
I7955
sV\u6483
I5686
sV\u8302
I1678
sV\u6a87
I6793
sV\u8f0a
I6325
sV\u520c
I8362
sV\u9b12
I6344
sV\u5e14
I1947
sV\u6418
I1553
sV\u7020
I7433
sV\u7624
I5786
sV\u7c28
I7325
sV\u822c
I1794
sV\u69b1
I4540
sV\u8e34
I4197
sV\u75b9
I4464
sV\u9438
I5057
sV\u9a3c
I6022
sV\u81c1
I7167
sV\u6f4a
I7065
sV\u754e
I4164
sV\u99d1
I5070
sV\u7b52
I2592
sV\u62d7
I4593
sV\u74e3
I6058
sV\u5664
I2330
sV\u5c68
I2530
sV\u9f6a
I3727
sV\u4ff5
I6749
sV\u9eff
I4614
sV\u6101
I9
sV\u6705
I5241
sV\u300b
I5766
sV\u558e
I8442
sV\u6196
I8715
sV\u679a
I2910
sV\u8b1d
I24
sV\u73a2
I7596
sV\u79a6
I3338
sV\u602b
I7476
sV\u662f
I163
sV\u6c33
I2177
sV\u54b8
I1371
sV\u97ba
I7783
sV\u5abc
I5151
sV\u7e3f
I7612
sV\u66c4
I4553
sV\u904b
I1064
sV\u534d
I5861
sV\u72cc
I8043
sV\u5951
I3240
sV\u78d0
I3575
sV\u6559
I109
sV\u8adc
I6353
sV\u53e2
I1048
sV\u7765
I4562
sV\u59e6
I4509
sV\u5fea
I5594
sV\u5277
I8299
sV\u5e7f
I8382
sV\u6583
I4040
sV\u8202
I4257
sV\u8806
I2719
sV\u8e0a
I6034
sV\u5910
I8348
sV\u7d93
I296
sV\u5f14
I2548
sV\u6518
I2999
sV\u8f9f
I1806
sV\u95a3
I978
sV\u56a5
I3564
sV\u5ca9
I2873
sV\u8930
I1816
sV\u6eb5
I7332
sV\u8f34
I7312
sV\u74b9
I5805
sV\u9b3c
I292
sV\u5c3e
I1037
sV\u6846
I8520
sV\u51cb
I283
sV\u6e4a
I5382
sV\u57cf
I6709
sV\u5dd3
I7196
sV\u9ed5
I7638
sV\u8056
I589
sV\u6fdf
I332
sV\u9262
I2488
sV\u5764
I1307
sV\u9866
I3446
sV\u8df3
I1134
sV\u4ef5
I8727
sV\u7578
I7392
sV\u8180
I8515
sV\u8784
I8748
sV\u6c09
I7740
sV\u720d
I2303
sV\u938c
I7041
sV\u548e
I4451
sV\u7811
I2001
sV\u5a92
I1479
sV\u9f94
I3350
sV\u6096
I6657
sV\u8a1d
I1804
sV\u9021
I3119
sV\u72a2
I2401
sV\u9c29
I4671
sV\u612b
I6766
sV\u672f
I5747
sV\u6d33
I4767
sV\u8ab2
I1809
sV\u7337
I3135
sV\u5bbc
I8658
sV\u8543
I3235
sV\u67c4
I3073
sV\u6dc8
I8441
sV\u914b
I6267
sV\u524d
I407
sV\u5851
I6103
sV\u9d53
I7962
sV\u5e55
I678
sV\u7fd4
I997
sV\u52e2
I313
sV\u7665
I6531
sV\u97e4
I2119
sV\u7c69
I3909
sV\u9de8
I7359
sV\u8871
I6290
sV\ue829
I6460
sV\u5377
I1191
sV\u9479
I7641
sV\u5f7f
I2472
sV\u7cfe
I5477
sV\u8102
I2148
sV\u4e08
I2336
sV\u8d0a
I1688
sV\u970e
I2053
sV\u7e93
I547
sV\u9912
I1841
sV\u5c14
I8127
sS'<START>'
p2
I8783
sV\u96a3
I2858
sV\u7424
I3764
sV\u5fa9
I1424
sV\u6db5
I2565
sV\u77b9
I4901
sV\u79bd
I1213
sV\u983c
I6702
sV\u83c1
I1131
sV\u6b46
I4380
sV\u91cd
I441
sV\u774e
I5834
sV\u5ed3
I768
sV\u9dd5
I5393
sV\u8356
I5331
sV\u6adb
I3519
sV\u855a
I4592
sV\u5260
I8389
sV\u76e3
I3719
sV\u9162
I4975
sV\u78e7
I2956
sV\u5e68
I4308
sV\u82eb
I4684
sV\u606c
I3157
sV\u6a70
I7639
sV\u6c74
I5311
sV\u57f9
I5253
sV\u7678
I5677
sV\u9afb
I2151
sV\u787c
I8501
sV\u9cff
I7044
sV\u6301
I622
sV\u6505
I7151
sV\u6f09
I3246
sV\u7b11
I339
sV\u5992
I1002
sV\u7d15
I6063
sV\u6396
I1694
sV\u659a
I8765
sV\u9321
I7410
sV\u5827
I7757
sV\u622b
I8699
sV\u87ae
I4666
sV\u89b2
I4165
sV\u7a3b
I1508
sV\u58bc
I7164
sV\u7c3f
I4907
sV\u64c4
I6927
sV\u4f49
I6976
sV\u924b
I7629
sV\u514d
I1376
sV\u5b51
I5378
sV\u5d55
I8021
sV\u6759
I7398
sV\u695d
I7960
sV\u88dc
I3322
sV\u4fde
I5118
sV\u7361
I8204
sV\u7565
I276
sV\u5be6
I633
sV\u7f69
I4838
sV\u9ee8
I627
sV\u67ee
I6543
sV\u4e73
I2739
sV\u69f2
I5075
sV\u5077
I123
sV\u75fa
I6478
sV\u7ffe
I5837
sV\u738b
I906
sV\u758f
I1692
sV\u9812
I3984
sV\u5d14
I3353
sV\u6718
I4025
sV\u54a5
I8491
sV\u7524
I8424
sV\u5236
I3763
sV\u9738
I703
sV\u543a
I7939
sV\u993c
I7360
sV\u6042
I4813
sV\u53cb
I3197
sV\u6c4a
I6466
sV\u90cd
I7023
sV\u9ad1
I5985
sV\u8256
I7742
sV\u6bdb
I1380
sV\u845a
I7309
sV\u5360
I2416
sV\u77e3
I2057
sV\u79e7
I5206
sV\u9a66
I4944
sV\u83eb
I7092
sV\u6d74
I2080
sV\u56f9
I4762
sV\u58fd
I2311
sV\u797c
I4352
sV\u8584
I14
sV\u700d
I4054
sV\u568e
I6913
sV\u7a11
I6990
sV\u9b90
I5632
sV\u6296
I3965
sV\u8619
I7887
sV\u649a
I2191
sV\u5927
I551
sV\u632b
I3284
sV\u652f
I176
sV\u6f33
I2553
sV\u57b8
I8183
sV\u7b3b
I6027
sV\u7d3f
I4888
sV\u9ebe
I3480
sV\u63c0
I4068
sV\u8743
I7730
sV\u65c4
I3772
sV\u934b
I6548
sV\u5a51
I5285
sV\u9f53
I5910
sV\u5c55
I1359
sV\u89dc
I1258
sV\u4ede
I2453
sV\u7261
I2487
sV\u95e4
I5599
sV\u5ae6
I2880
sV\u7e69
I1147
sV\u8a71
I7
sV\u4f73
I139
sV\u68f2
I1212
sV\u5177
I2777
sV\u72f6
I8487
sV\u8702
I2696
sV\u748b
I4088
sV\u560c
I8516
sV\u7893
I4603
sV\u4f9d
I934
sV\u90a3
I37
sV\u53a5
I4015
sV\u9ea7
I4909
sV\u6bb5
I2734
sV\u8a34
I2813
sV\u5536
I7284
sV\u71b9
I6956
sV\u9038
I94
sV\u7fbd
I443
sV\u593e
I2262
sV\u85c1
I1643
sV\u83c5
I5641
sV\u4ec7
I4623
sV\u6b4a
I5000
sV\u97cd
I8544
sV\u714e
I2661
sV\u58d3
I1521
sV\u8556
I2903
sV\u6cdb
I2276
sV\u6adf
I5428
sV\u895e
I2678
sV\u9762
I1044
sV\u666c
I5172
sV\u82ef
I7324
sV\u6c70
I3656
sV\u88f3
I354
sV\u96f7
I244
sV\u51f9
I4144
sV\u7078
I3827
sV\u5ffd
I1310
sV\u7e7c
I2551
sV\u9aff
I7234
sV\u8480
I7964
sV\u6305
I8149
sV\u8284
I8470
sV\u8888
I2509
sV\u5f92
I555
sV\u6596
I8378
sV\u8f1d
I1006
sV\u699e
I6403
sV\u5023
I6637
sV\u77a2
I6607
sV\u7da6
I4085
sV\u6833
I6528
sV\u8fb2
I1735
sV\u95b6
I1799
sV\u7a3f
I5313
sV\u8043
I6479
sV\u62c4
I2023
sV\u8e47
I3283
sV\u76cc
I3720
sV\u924f
I4589
sV\u9853
I4501
sV\u5b55
I4804
sV\u6159
I590
sV\u80d8
I5588
sV\u92e4
I1132
sV\u5de6
I1418
sV\u98e8
I5976
sV\u9179
I3315
sV\u5a7f
I5947
sV\u6183
I7261
sV\u8602
I2616
sV\u6f87
I6650
sV\u758b
I3710
sV\u8a0a
I3748
sV\u5d10
I7696
sV\u9e12
I8569
sV\u8797
I6090
sV\u8b9f
I4449
sV\u54a1
I8409
sV\u58a9
I6275
sV\u6cb1
I4324
sV\u4e32
I3688
sV\u5436
I7572
sV\u523a
I75
sV\u84c1
I4538
sV\u6642
I80
sV\u96cd
I2234
sV\u59d3
I2313
sV\u7e52
I4836
sV\u6ddb
I4217
sV\u825a
I4326
sV\u4f5c
I870
sV\u885e
I5702
sV\u9662
I1262
sV\u9a6a
I2670
sV\u83ef
I228
sV\u89f3
I6939
sV\u50f9
I3420
sV\u7f7c
I5807
sV\u9bff
I6476
sV\u8988
I5484
sV\u7c11
I6539
sV\u8e1d
I8438
sV\u5f27
I5108
sV\u652b
I3680
sV\u7aaa
I3807
sV\u632f
I2893
sV\u7737
I2261
sV\u5fbc
I3545
sV\u98be
I3784
sV\u63c4
I2789
sV\u564d
I7292
sV\u77cc
I8328
sV\u5c51
I2274
sV\u5a55
I5678
sV\u7bd4
I7055
sV\u6059
I3882
sV\u81d8
I812
sV\u6e5d
I8697
sV\u95e0
I5600
sV\u93e4
I2308
sV\u7869
I6993
sV\u5aea
I6994
sV\u6ef2
I2566
sV\u8a75
I4287
sV\u5777
I7411
sV\u74f6
I1395
sV\u9079
I5820
sV\u72fa
I5651
sV\u9e7d
I2735
sV\u78fe
I5691
sV\u6283
I901
sV\u6c87
I7660
sV\u768b
I7527
sV\u890a
I4461
sV\u540c
I746
sV\u7a93
I3128
sV\u9d12
I2546
sV\u57a1
I7792
sV\u7620
I695
sV\u51a5
I550
sV\u842c
I713
sV\u6fb1
I1575
sV\u8e30
I1795
sV\u9238
I8161
sV\u513a
I5334
sV\u7dbd
I5243
sV\u5b3e
I1824
sV\u56cb
I4679
sV\u694a
I1648
sV\u95cd
I4183
sV\u50cf
I2808
sV\u734e
I4395
sV\u5ad3
I4150
sV\u99d5
I2458
sV\u64d7
I8025
sV\u6edb
I8678
sV\u68df
I2455
sV\u7ce7
I435
sV\u9f66
I8191
sV\u80ef
I6470
sV\u4ff1
I1645
sV\u8af3
I2088
sV\u6874
I4162
sV\u7278
I6853
sV\u9efb
I4757
sV\u5dfd
I6244
sV\u8084
I5863
sV\u4f86
I187
sV\u750d
I4035
sV\u300f
I5826
sV\u5d92
I2712
sV\u8319
I4416
sV\u619a
I1633
sV\u6b9e
I4570
sV\u9721
I6050
sV\u75a2
I5129
sV\u9b29
I8616
sV\u662b
I8571
sV\u79aa
I1244
sV\u602f
I2085
sV\u8db2
I8167
sV\u97b6
I6092
sV\u7e3b
I3449
sV\u91ba
I85
sV\u66c0
I4425
sV\u60c4
I7330
sV\u964b
I3622
sV\u74cc
I3797
sV\u904f
I1511
sV\u5955
I4410
sV\u78d4
I4830
sV\u8cdc
I1624
sV\u7761
I790
sV\u55e2
I5972
sV\u7165
I4155
sV\u90e4
I5211
sV\u59ea
I3169
sV\u856d
I1560
sV\u63ee
I1756
sV\u8975
I7592
sV\u5477
I6560
sV\u5e7b
I2065
sV\u9d7d
I8126
sV\u587f
I5275
sV\u7bfe
I3852
sV\u6383
I2819
sV\u6d87
I1281
sV\u8e06
I6287
sV\u778b
I6005
sV\u718f
I941
sV\u920e
I5693
sV\u9c12
I7841
sV\u5914
I580
sV\u8597
I5819
sV\u8f9b
I1728
sV\u7720
I411
sV\u93a3
I8597
sV\u64ad
I4061
sV\u852c
I2908
sV\u6eb1
I7091
sV\u68b5
I3820
sV\u5636
I2013
sV\u7cbd
I5283
sV\u86c1
I8454
sV\u57cb
I2258
sV\u724e
I8645
sV\u9ed1
I1038
sV\u5bd3
I2446
sV\u65d7
I1340
sV\u8656
I8169
sV\u6fdb
I2560
sV\u805a
I1233
sV\u8a5e
I1696
sV\u73e3
I5840
sV\u87eb
I7479
sV\u656c
I3853
sV\u81ef
I579
sV\u6f70
I2572
sV\u7378
I2305
sV\u5cfd
I1785
sV\u99ff
I3363
sV\u4e86
I1446
sV\u958c
I8288
sV\u528e
I6708
sV\u7e11
I2998
sV\u9f90
I4270
sV\u6696
I1488
sV\u609a
I4148
sV\u6a9e
I7617
sV\u9621
I2263
sV\u5323
I2694
sV\u5d27
I3644
sV\u672b
I1636
sV\u78aa
I2140
sV\u82ae
I6141
sV\u8cb2
I5444
sV\u7537
I3198
sV\uff3b
I5792
sV\u5dbc
I4185
sV\u793f
I7650
sV\u67c0
I6167
sV\u8343
I4208
sV\u79d4
I2046
sV\u83d8
I5591
sV\u6c5d
I3201
sV\u8ddc
I8496
sV\u7661
I834
sV\u54e2
I3413
sV\u91e4
I4894
sV\u7a69
I777
sV\u9be8
I3860
sV\u846d
I2775
sV\u62ee
I8315
sV\u6c83
I2163
sV\u8b02
I2850
sV\u8106
I3503
sV\u870a
I5094
sV\u7e8f
I1771
sV\u5010
I6076
sV\u5614
I5191
sV\u809b
I7258
sV\u55a9
I5713
sV\u7428
I2899
sV\u6bad
I5462
sV\u8030
I4522
sV\u67b5
I6017
sV\u7db9
I3178
sV\u5f3a
I5919
sV\u553e
I982
sV\u8fc5
I3107
sV\u6146
I7381
sV\u85c9
I1474
sV\u91d1
I133
sV\u7352
I705
sV\u8956
I4572
sV\u60db
I4847
sV\u855e
I6423
sV\u5860
I6307
sV\u5468
I1895
sV\u6070
I2836
sV\u6674
I355
sV\u5df9
I3912
sV\u6901
I7865
sV\u8e84
I8426
sV\u6509
I4224
sV\u9090
I1565
sV\u9694
I1154
sV\u8d19
I6419
sV\u831d
I5368
sV\u9921
I8695
sV\u77aa
I3940
sV\u6e2f
I1116
sV\u7a37
I528
sV\u5cb8
I1222
sV\u52bc
I7930
sV\u95be
I5342
sV\u4f45
I8357
sV\u6ec4
I2430
sV\u8247
I1193
sV\u64c8
I7173
sV\u984b
I7123
sV\u76d4
I8108
sV\u6d59
I2892
sV\u4fda
I6119
sV\u635d
I5942
sV\u82dc
I5090
sV\u5be2
I1264
sV\u7f65
I2271
sV\u9ee4
I6292
sV\u6dee
I1343
sV\u63f2
I5195
sV\u5a77
I5736
sV\u7ffa
I3673
sV\u75fe
I4741
sV\u8a02
I5987
sV\u6387
I2909
sV\u8006
I4440
sV\u798b
I4343
sV\u860a
I3220
sV\u5b0c
I2062
sV\u5110
I8233
sV\u7593
I6831
sV\u9212
I7711
sV\u6d18
I5111
sV\u879f
I3988
sV\u5ea5
I7320
sV\u93a7
I6204
sV\u54a9
I8474
sV\u7528
I888
sV\u8b2c
I3072
sV\u60b1
I8609
sV\u8130
I6946
sV\u66b5
I4520
sV\u8734
I5413
sV\u7cb9
I5524
sV\u543e
I554
sV\u88c1
I150
sV\u6046
I845
sV\u84c9
I2681
sV\u59cb
I639
sV\u7252
I4816
sV\u96d5
I2170
sV\u6bd7
I3646
sV\u8856
I5545
sV\u67df
I6372
sV\u5960
I2855
sV\u7de3
I482
sV\u9a62
I3970
sV\u5f64
I3568
sV\u5568
I3702
sV\u89eb
I6940
sV\u966a
I2360
sV\u6170
I1531
sV\u85f3
I8244
sV\u6774
I7032
sV\u7d78
I8289
sV\u737c
I5025
sV\u97ff
I1932
sV\u6e05
I92
sV\u6409
I7917
sV\u8588
I6422
sV\u7a0d
I1221
sV\u9b8c
I7323
sV\u7011
I3000
sV\u9190
I2228
sV\u5292
I718
sV\u7615
I8458
sV\u9794
I6828
sV\u649e
I5308
sV\u9821
I4322
sV\u76aa
I4082
sV\u6f2f
I6628
sV\u8cae
I5867
sV\u98b6
I4669
sV\u5db8
I3275
sV\u69c0
I7417
sV\u4e45
I1059
sV\u8347
I3428
sV\u994b
I3871
sV\u7bcc
I4641
sV\u9f4f
I5409
sV\u71d0
I5854
sV\u6c59
I2042
sV\u4eda
I5875
sV\u83dc
I1840
sV\u50e6
I6508
sV\u7469
I1622
sV\u8a6d
I2294
sV\u4f6f
I2210
sV\u6cee
I3438
sV\u8071
I6973
sV\u62f2
I7904
sV\u8675
I2996
sV\u8306
I2431
sV\u7a8b
I8604
sV\u580c
I8427
sV\u9f0e
I2505
sV\u7693
I701
sV\u9112
I3731
sV\u8897
I7842
sV\u601c
I5931
sV\u849f
I8257
sV\u7a20
I3863
sV\u69ad
I2866
sV\u65b5
I3999
sV\u7fb9
I2854
sV\u903c
I469
sV\u4ec3
I8148
sV\u6942
I6710
sV\u87c9
I2716
sV\u5acb
I2672
sV\u93d1
I5720
sV\u56d3
I7133
sV\u7152
I4419
sV\u95d5
I402
sV\u68d7
I3344
sV\u8b56
I7501
sV\u4e58
I714
sV\u62db
I1467
sV\u5a60
I7471
sV\u5c64
I1333
sV\u5668
I1889
sV\u8aeb
I2947
sV\u6474
I6513
sV\u51fd
I1491
sV\u707c
I3065
sV\u6709
I69
sV\u5192
I3441
sV\u7515
I1518
sV\u6b96
I4772
sV\u8f19
I3379
sV\u811d
I6850
sV\u9b21
I7458
sV\u5027
I6761
sV\u73a6
I5562
sV\u8fae
I5326
sV\u6633
I6023
sV\u5eb8
I5097
sV\u723b
I4759
sV\u9dba
I2545
sV\u97be
I8007
sV\u6cc4
I2110
sV\u66c8
I4583
sV\u9c4f
I4564
sV\u5351
I1830
sV\u72d0
I2265
sV\u5555
I6914
sV\u74d4
I5495
sV\u6f59
I8049
sV\u615d
I6285
sV\u9ae0
I4557
sV\u53e6
I5797
sV\u7769
I8290
sV\u96e8
I25
sV\u896d
I6462
sV\u6fee
I4967
sV\u61f2
I650
sV\u7dfa
I7124
sV\u547f
I7663
sV\u6187
I5921
sV\u7b8b
I625
sV\u840a
I2732
sV\u7d8f
I5009
sV\u9e0e
I5407
sV\u5310
I5218
sV\u5514
I8397
sV\u4e99
I4438
sV\u6f18
I6439
sV\u839b
I7615
sV\u611c
I1013
sV\u7b20
I2432
sV\u7728
I7782
sV\u68ad
I2338
sV\u62b1
I225
sV\u8534
I6070
sV\u5a36
I3528
sV\u5c3a
I1145
sV\u4fc3
I902
sV\u6842
I509
sV\u6246
I4169
sV\u86c9
I8396
sV\u98cd
I8434
sV\u5dcf
I8763
sV\u57d3
I7888
sV\u7052
I4392
sV\u8a56
I6712
sV\u63db
I351
sV\u8c5a
I3165
sV\u65df
I3717
sV\u865e
I3059
sV\u7fe3
I4662
sV\u9862
I7513
sV\u71e7
I4348
sV\u9266
I5443
sV\u5768
I8555
sV\u946a
I1675
sV\u696c
I7924
sV\u8def
I178
sV\u6574
I642
sV\u99f7
I7666
sV\u5ef9
I8535
sV\u7f78
I6109
sV\u717c
I5468
sV\u6a01
I7260
sV\u8b80
I1579
sV\u6c05
I3153
sV\u8d84
I6969
sV\u6609
I2200
sV\u780d
I8111
sV\u7211
I8668
sV\u5092
I6800
sV\u9594
I3027
sV\u6c9a
I1984
sV\u78a2
I3301
sV\u9c25
I5014
sV\u74aa
I4001
sV\u80b2
I3256
sV\u733b
I6616
sV\u753f
I4336
sV\u6bc0
I843
sV\u6dc4
I2664
sV\u8147
I7460
sV\u67c8
I8309
sV\u584d
I3193
sV\u75d4
I7077
sV\u605d
I5789
sV\u7a61
I3313
sV\u7c65
I3771
sV\u9de4
I8353
sV\u52e6
I7549
sV\u7669
I6811
sV\u6eee
I7706
sV\u8271
I1332
sV\u60f2
I2324
sV\u8475
I3418
sV\u7af6
I1128
sV\u9e79
I1277
sV\u537b
I5196
sV\u7cfa
I4764
sV\u907d
I3067
sV\u76fe
I6044
sV\u6883
I8019
sV\u6687
I821
sV\u8506
I6943
sV\u5e0c
I3161
sV\u5410
I1188
sV\u829f
I1949
sV\u7c20
I7510
sV\u98a3
I7337
sV\u5ba5
I4586
sV\u96a7
I4661
sV\u7028
I3899
sV\u8234
I1548
sV\u79b9
I2411
sV\u9838
I2007
sV\u77bd
I5485
sV\u963c
I8361
sV\u8dc1
I7524
sV\u81c9
I815
sV\u5ccb
I6271
sV\u7752
I4653
sV\u8b5a
I4467
sV\u5c60
I3045
sV\u78e3
I7642
sV\u9f62
I8737
sV\u76e7
I526
sV\u8ceb
I7466
sV\u936a
I6266
sV\u6274
I7928
sV\u9ef7
I4722
sV\u59f9
I3765
sV\u57fd
I1357
sV\u767c
I1743
sV\u8a84
I6258
sV\u6109
I4532
sV\u7511
I3436
sV\u6d96
I6120
sV\u7fa2
I7967
sV\u9b25
I8134
sV\u4eac
I883
sV\u6033
I4747
sV\u7e37
I2034
sV\u56bc
I3665
sV\u5f4d
I7945
sV\u9a4f
I7724
sV\u5551
I1256
sV\u9053
I440
sV\u72d4
I8513
sV\u6959
I6139
sV\u88d8
I2965
sV\u675d
I7779
sV\u86dc
I7634
sV\u7d61
I2997
sV\u7b65
I6594
sV\u7169
I2213
sV\u90e8
I1719
sV\u53ea
I2043
sV\u69ee
I7490
sV\u5e77
I1893
sV\u7df6
I2000
sV\u547b
I4822
sV\u527f
I7285
sV\u71fe
I5810
sV\u6787
I4952
sV\u820a
I352
sV\u7b8f
I2639
sV\u980e
I4136
sV\u5510
I2448
sV\u5314
I8129
sV\u859b
I3090
sV\u5ca1
I3340
sV\u7d20
I1107
sV\u62b5
I1782
sV\u9938
I8214
sV\u8cc1
I4511
sV\u6446
I6905
sV\u80c9
I8189
sV\u5dcb
I3947
sV\u9ecd
I1089
sV\u784e
I4974
sV\u65db
I4664
sV\u805e
I243
sV\u79e3
I3974
sV\u5b64
I1542
sV\u77e7
I4462
sV\u5168
I712
sV\u4eed
I8014
sV\u6f6c
I5617
sV\u81f3
I1852
sV\u58f9
I6751
sV\u95fb
I8607
sV\u4e82
I186
sV\u6a05
I4880
sV\u8188
I6630
sV\u9394
I3189
sV\u6c96
I4342
sV\u8819
I1623
sV\u609e
I2474
sV\u74a6
I7432
sV\u6d2b
I4843
sV\u59b8
I8246
sV\u733f
I2464
sV\u90be
I8462
sV\u6dc0
I8057
sV\u8943
I5209
sV\u61c8
I6660
sV\u7fcc
I6762
sV\u9b4f
I1702
sV\u5451
I6701
sV\u665d
I1263
sV\u87dc
I8242
sV\u9de0
I4859
sV\u5ee2
I897
sV\u9be4
I2266
sV\u54e6
I2748
sV\u7069
I2255
sV\u8e6d
I2427
sV\u68ee
I2160
sV\u8471
I3732
sV\u66f2
I918
sV\u5f77
I2471
sV\u7cf6
I2782
sV\u557b
I3260
sV\u7afa
I3586
sV\u967d
I416
sV\u537f
I452
sV\u4e00
I146
sV\u6487
I3667
sV\u8706
I5509
sV\u810a
I5276
sV\u788f
I7729
sV\u5610
I7374
sV\u5014
I4012
sV\u869b
I7025
sV\u641c
I1724
sV\u5fa1
I1236
sV\u7e20
I4824
sV\u59a5
I4569
sV\u53a9
I6341
sV\u7228
I3434
sV\u6dad
I7530
sV4
I5473
sV\u75bd
I6056
sV\u6746
I3975
sV\u83c9
I4289
sV\u5ecb
I8411
sV\u614a
I5199
sV\u6cd7
I4923
sV\u66db
I3698
sV\u895a
I8622
sV\u60df
I2126
sV\u5864
I3818
sV\u9766
I5633
sV\u8eeb
I3185
sV\u916a
I1621
sV\u88ef
I3645
sV\u6670
I3886
sV\u9cf7
I2829
sV\u7a78
I6412
sV\u96fb
I463
sV\u55fd
I4083
sV\u90ff
I6503
sV\u6f01
I456
sV\u6905
I6428
sV\u6309
I1885
sV\u7d0d
I3087
sV\u7115
I8689
sV\u9094
I6815
sV\u8b19
I4184
sV\u639e
I6511
sV\u5a23
I6165
sV\u7da2
I3959
sV\u6e2b
I6497
sV\u6233
I6443
sV\u85b2
I7317
sV\u7c37
I2443
sV\u5ab8
I5215
sV\u99ba
I5952
sV\u54bc
I7616
sV\u8a43
I6006
sV\u68c4
I549
sV\u62c8
I2175
sV\u5d4d
I8764
sV\u984f
I489
sV\u5751
I5339
sV\u5155
I3137
sV\u70d4
I8655
sV\u6b59
I5521
sV\u655d
I3187
sV\u7f61
I5436
sV\u9ee0
I835
sV\u5de2
I677
sV\u7965
I1382
sV\u8d6d
I4099
sV\u8771
I5427
sV\u7ff6
I6644
sV\u73fe
I4174
sV\u6b83
I5435
sV\u6587
I601
sV\u8606
I2520
sV\u798f
I2801
sV\u9a0e
I1348
sV\u7393
I3617
sV\u5114
I4087
sV\u8d97
I5639
sV\u651c
I1334
sV\u52a9
I1280
sV\u7328
I2480
sV\u60b5
I836
sV\u5e36
I985
sV\u74bd
I1427
sV\u523e
I8630
sV\u6c42
I711
sV\u7a4e
I5920
sV\u7be3
I7822
sV\u5368
I4473
sV\u8feb
I3581
sV\u6770
I6580
sV\u6174
I7755
sV\u97fb
I1070
sV\u54fd
I6877
sV\u91ff
I6822
sV\u7c0d
I6492
sV\u5492
I4803
sV\u7015
I8117
sV\u6e96
I3289
sV\u7ca2
I4362
sV\u9825
I7387
sV\u5527
I5168
sV\u76a6
I4515
sV\u6f2b
I1081
sV\u84b2
I1364
sV\u5bb8
I926
sV\u98ba
I2482
sV\u6fc0
I1818
sV\u9f4b
I2069
sV\u5c4d
I4488
sV\u7dcc
I548
sV\u5651
I8082
sV\u77d0
I4652
sV\u5055
I3915
sV\u71d4
I5244
sV\u4ed6
I562
sV\u6a59
I4961
sV\u645d
I8035
sV\u85dc
I1017
sV\u7e61
I1698
sV\u7269
I1099
sV\u8c6d
I7358
sV\u8671
I5185
sV\u64f2
I1630
sV\u5d77
I6363
sV\u577b
I3486
sV\u78fa
I6820
sV\u947d
I2714
sV\u5000
I2230
sV\u7483
I3479
sV\u5c08
I2720
sV\u608b
I5885
sV\u6c93
I4121
sV\u4e14
I88
sV\u5599
I7073
sV\u7a1c
I1574
sV\u9e9f
I2314
sV\u6020
I6448
sV\u73ad
I6887
sV\u552e
I4280
sV\u79b1
I3308
sV\u9830
I2024
sV\u7fb5
I8072
sV\u65b9
I100
sV\u8438
I3280
sV\u6bbd
I5167
sV\u8a3c
I8714
sV\u91c1
I4575
sV\u97c5
I7206
sV\u5ac7
I8642
sV\u7946
I5659
sV\u654e
I4253
sV\u8fd5
I6342
sV\u72d7
I453
sV\u9156
I7647
sV\u975a
I2857
sV\u9d5e
I5547
sV\u64e3
I1904
sV\u6ae7
I6253
sV\u8966
I4931
sV\u90eb
I6666
sV\u59f1
I5980
sV\u9cf3
I1083
sV\u5ff5
I1026
sV\u82f7
I7451
sV\u6478
I825
sV\u8eff
I4613
sV\u9080
I1979
sV\u9684
I1459
sV\u7d09
I2762
sV\u5f8a
I2435
sV\u630d
I3677
sV\u6911
I7099
sV\u6f15
I3815
sV\u8e94
I614
sV\u5217
I927
sV\u7196
I7492
sV\u581b
I8366
sV\u9b1d
I8374
sV\u5e1f
I4437
sV\u63a2
I1056
sV\u8725
I5615
sV\u69a6
I4327
sV\u52ac
I4216
sV\u7c33
I6360
sV\u87ba
I2679
sV\u8dbe
I4079
sV\u5141
I5967
sV\u7cc8
I7805
sV\u62cc
I6715
sV\u68d0
I8150
sV\u8c53
I8745
sV\u4f55
I334
sV\u6ed4
I4093
sV\u7559
I71
sV\u94d8
I6394
sV\u5dde
I1787
sV\u86e4
I5093
sV\u6d69
I2618
sV\u8ce8
I5587
sV\u7bf2
I3881
sV\u61f6
I3242
sV\u8b7d
I844
sV\u5100
I3311
sV\u7583
I6491
sV\u5704
I4763
sV\u7b87
I826
sV\u9806
I748
sV\u9e0a
I4505
sV\u678f
I7856
sV\u840e
I2776
sV\u6d93
I4346
sV\u9397
I3658
sV\u3016
I5817
sV\u7518
I341
sV\u542e
I4529
sV\u9f34
I6272
sV\u90c1
I2758
sV\u7242
I7326
sV\u96c5
I3241
sV\u5bc7
I4317
sV\u644e
I5982
sV\u5b5c
I1954
sV\u7fdf
I4445
sV\u736c
I5155
sV\u5ef5
I5777
sV\u6578
I957
sV\u7001
I4089
sV\u5282
I8388
sV\u7c09
I6651
sV\u5e8a
I5421
sV\u620d
I2050
sV\u5317
I722
sV\u9419
I2105
sV\u769a
I5223
sV\u5f1f
I778
sV\u712b
I8536
sV\u6eaa
I1012
sV\u772f
I5480
sV\u7d33
I3952
sV\u5fb4
I4403
sV\u80b6
I7995
sV\u6f3f
I155
sV\u5041
I8115
sV\u71c0
I8144
sV\u5645
I7774
sV\u814b
I1638
sV\u69d0
I1602
sV\u50d6
I6775
sV\u7459
I3810
sV\u95d8
I6624
sV\u56da
I3513
sV\u5cde
I6385
sV\u6061
I4985
sV\u81e0
I5470
sV\u6c69
I4872
sV\u8de8
I4624
sV\u516b
I179
sV\u576f
I6483
sV\u74ee
I5959
sV\u9871
I5282
sV\u5d73
I6972
sV\u9e75
I2232
sV\u60f6
I4050
sV\u8479
I7267
sV\u4f7f
I1434
sV\u5200
I1144
sV\u7683
I8013
sV\u9102
I4497
sV\u5404
I2074
sV\u7887
I7969
sV\u9b06
I2156
sV\u648f
I6547
sV\u6e93
I5716
sV\u8912
I4819
sV\u9097
I7509
sV\u599d
I1285
sV\u6424
I6410
sV\u902c
I6203
sV\u572e
I5630
sV\u7bb1
I3342
sV\u9a30
I1102
sV\u7db5
I1992
sV\u67b9
I6326
sV\u8638
I2891
sV\u4f3e
I8116
sV\u93c1
I2512
sV\u58c7
I406
sV\u7b46
I1201
sV\u81cd
I392
sV\u674e
I502
sV\u8dd5
I4500
sV\u7cdf
I2341
sV\u68e7
I1726
sV\u8b66
I2382
sV\u51ed
I1928
sV\u7a70
I4037
sV\u9ef3
I6523
sV\u5df5
I2486
sV\u80f7
I2003
sV\u9280
I1041
sV\uff09
I5769
sV\u9e88
I3709
sV\u610d
I5878
sV\u808c
I3795
sV\u8c94
I1848
sV\u7396
I4407
sV\u9719
I7889
sV\u5a1b
I2961
sV\u759a
I5431
sV\u5c1f
I2082
sV\u7f9e
I877
sV\u8525
I3615
sV\u8f29
I3214
sV\u6daa
I4694
sV\u50ac
I1535
sV\u742f
I5362
sV\u97ae
I4933
sV\u6a3b
I8109
sV\u85ba
I5004
sV\u5341
I500
sV\u72c0
I1202
sV\u5545
I6273
sV\u9847
I3447
sV\u824b
I1549
sV\u6ad0
I8314
sV\u53d6
I145
sV\u96d8
I3362
sV\u55da
I1568
sV\u795d
I935
sV\u98dc
I706
sV\u8ee8
I7118
sV\u916d
I8376
sV\u77ee
I7605
sV\u5e73
I481
sV\u63f6
I2788
sV\u8779
I7949
sV\u65fa
I4149
sV\u6ffe
I4065
sV\u5504
I5897
sV\u7987
I6810
sV\u5f08
I4351
sV\u8812
I5550
sV\u5699
I5065
sV\u7718
I5010
sV\u589d
I7519
sV\u791c
I5579
sV\u87a3
I7169
sV\u6524
I5996
sV\u70ad
I1301
sV\u912c
I8068
sV\u562e
I8578
sV\u7ab1
I4397
sV\ue832
I6760
sV\u7cb5
I4439
sV\u66b9
I6681
sV\u57c3
I1377
sV\u7042
I7912
sV\u7a46
I3162
sV\u7c4a
I3880
sV\u8ad1
I7915
sV\u6852
I6728
sV\u8cd5
I7569
sV\u7bdb
I7838
sV\u945a
I7409
sV\u67e3
I8322
sV\u69e7
I6989
sV\u8a66
I248
sV\u4f68
I8643
sV\u8c6a
I532
sV\u50ed
I5330
sV\u716c
I3188
sV\u7b70
I7074
sV\u6778
I6172
sV\u7405
I3132
sV\u5a86
I6597
sV\u7e09
I3951
sV\u5c8a
I8558
sV\u600d
I6188
sV\u6a11
I5926
sV\u8b90
I2629
sV\u5117
I4890
sV\u7296
I5249
sV\u5b1b
I6685
sV\u749a
I6185
sV\u5d1f
I6084
sV\u8221
I8089
sV\u60a2
I7201
sV\u732b
I6004
sV\u51ac
I240
sV\u752f
I4801
sV\u96ae
I5602
sV\u5bb0
I3202
sV\u5db4
I8197
sV\u6137
I7840
sV\u6b3b
I7844
sV\u84ba
I4537
sV\u6d3f
I1351
sV\u5241
I6337
sV\u73c0
I2666
sV\u9743
I4674
sV\u5445
I6671
sV\u61cc
I5256
sV\u6bd0
I8422
sV\u8f53
I5011
sV\u52d6
I5726
sV\u785d
I5556
sV\u5ede
I8352
sV\u85e4
I1770
sV\u8fe8
I3600
sV\u906d
I1241
sV\u76ee
I786
sV\u78f2
I7195
sV\u62f6
I7024
sV\u8679
I795
sV\u64fa
I541
sV\u887d
I6318
sV\u6efe
I5340
sV\u9702
I2726
sV\u7e87
I7050
sV\u9d06
I5522
sV\u628f
I8308
sV\u6893
I1707
sV\u8f12
I5900
sV\u9697
I3182
sV\u7018
I5115
sV\u8ea7
I7467
sV\u77ad
I4175
sV\u962c
I7483
sV\u7db1
I3751
sV\u7bb5
I7001
sV8
I5774
sV\u8e3c
I8384
sV\u7d46
I3877
sV\u99c9
I7579
sV\u614e
I2319
sV\u8dd1
I2391
sV\u76d7
I8104
sV\u7adf
I696
sV\u995e
I3550
sV\u60e3
I6018
sV\u8d66
I4608
sV\u57ed
I5054
sV\u766c
I6026
sV\u5df1
I1717
sV\u5bf5
I1270
sV\u7a74
I1442
sV\u6e7c
I5886
sV\u5782
I387
sV\u670d
I1860
sV\u868c
I2644
sV\u6d11
I4779
sV\u8c90
I7768
sV\u5617
I344
sV\u9119
I2304
sV\u5a1f
I2246
sV\u8521
I2285
sV\u6baa
I7954
sV\u56ac
I4
sV\u91ae
I3075
sV\u85b6
I8776
sV\u5541
I4968
sV\u74c0
I4729
sV\u5345
I6682
sV\u72c4
I4330
sV\u5949
I2373
sV\u78c8
I6219
sV\u66cc
I8768
sV\u6cd0
I6136
sV\u8853
I2877
sV\u7159
I715
sV\u53da
I7488
sV\u7f5d
I4805
sV\u9edc
I4710
sV\u59de
I7587
sV\u6969
I6371
sV\u88e8
I4003
sV\u546b
I5222
sV\u526f
I3159
sV\u71ee
I4052
sV\u65f6
I8572
sV\u8179
I2763
sV\u5304
I2797
sV\u7f87
I8
sV\u9a0a
I8344
sV\u800e
I5554
sV\u5099
I2875
sV\u8fa7
I8107
sV\u502e
I5944
sV\u7cb1
I1509
sV\u9d30
I6449
sV\u7ab5
I8681
sV\u6ebd
I4312
sV\u8f3c
I7585
sV\u8034
I6974
sV\u7642
I3429
sV\u98c9
I7720
sV\u7a4a
I6406
sV\u8cd1
I6787
sV\u8ad5
I8519
sV\u77d7
I3088
sV\u7ddb
I7767
sV\u985e
I1283
sV\u61e3
I4460
sV\u8662
I4840
sV\u776c
I5956
sV\u7d70
I5927
sV\u5af5
I7413
sV\u7b74
I8773
sV\u4efd
I5841
sV\u6f7c
I3136
sV\u7401
I8603
sV\u9580
I50
sV\u7809
I5220
sV\u6c11
I1956
sV\u4e92
I4159
sV\u6a15
I7331
sV\u9019
I3086
sV\u5d1b
I4646
sV\u9e1d
I2483
sV\u8421
I8522
sV\u66a2
I2751
sV\u8225
I7553
sV\u752b
I3547
sV\u5db0
I5034
sV\u5bb4
I1868
sV\u6d3b
I2469
sV\u6b3f
I8700
sV\u88be
I5887
sV\u9143
I6933
sV\u5849
I4769
sV\u79c8
I4876
sV\u854b
I6096
sV\u834f
I4969
sV\u6bd4
I117
sV\u91d8
I5589
sV\u58de
I3253
sV\u536f
I3662
sV\u5973
I380
sV\u8079
I7290
sV\u990a
I709
sV\u4e10
I2508
sV\u9e9b
I4827
sV\u7c1c
I8016
sV\u6620
I1300
sV\u82a3
I3843
sV\u8ca7
I47
sV\u9834
I4396
sV\u8238
I2590
sV\u97c1
I3011
sV\u52c3
I3569
sV\u91c5
I5710
sV\u9bc9
I3895
sV\u794a
I8252
sV\u85cd
I1005
sV\u634e
I4493
sV\u8fd1
I294
sV\u9756
I3552
sV\u896a
I3571
sV\u90ef
I4252
sV\u5ff1
I6884
sV\u7e70
I5551
sV\u8efb
I2785
sV\u7701
I624
sV\u9084
I199
sV\u598a
I8034
sV\u8e90
I8636
sV\u8894
I8196
sV\u7796
I8210
sV\u9319
I1235
sV\u5e1b
I2528
sV\u9d1d
I7138
sV\u8721
I7020
sV\u6fa6
I3867
sV\u8b29
I7345
sV\u54ac
I3096
sV\u702f
I5650
sV\u93ae
I3329
sV\u6e3b
I8440
sV\u81ba
I1872
sV\u5145
I1019
sV\u7ac8
I3282
sV\u4f51
I5293
sV\u51da
I8592
sV\u5bde
I1733
sV\u6165
I6147
sV\u80e4
I983
sV\u6b69
I6721
sV\u566b
I2778
sV\u73ee
I2322
sV\u7df2
I2745
sV\u61fa
I5922
sV\u6bfe
I5578
sV\u5700
I6748
sV\u7383
I5307
sV\u5104
I4139
sV\u5b08
I5049
sV\u678b
I8254
sV\u980a
I4502
sV\u4f10
I2926
sV\u9597
I8141
sV\u7318
I1426
sV\u5c9d
I7517
sV\u7d1c
I2124
sV\u522e
I2070
sV\u9934
I8235
sV\u62b9
I3163
sV\u8338
I1052
sV\u6cbd
I2470
sV\u96c1
I373
sV\u53c3
I600
sV\u90c5
I5744
sV\u5dc7
I5667
sV\u7e46
I3960
sV\u784a
I7431
sV\u84cd
I3977
sV\u624e
I7864
sV\u8ed1
I7923
sV\u88d5
I5827
sV\u75d7
I7416
sV\u7fdb
I2354
sV\u79df
I3367
sV\u63e3
I5532
sV\u8462
I7847
sV\u54ed
I1873
sV\u756c
I4904
sV\u7f70
I3741
sV\u85f7
I8690
sV\u8ffb
I8524
sV\u6d7c
I439
sV\u89ff
I6224
sV\u7601
I4568
sV\u5482
I6379
sV\u7005
I6300
sV\u9184
I5328
sV\u7a09
I6335
sV\u588a
I4146
sV\u640d
I1739
sV\u858c
I4372
sV\u8994
I7152
sV\u7696
I4981
sV\u5f1b
I2772
sV\u7a9e
I7245
sV\u55ac
I2918
sV\u712f
I7892
sV\u7b33
I2750
sV\u6537
I6159
sV\u6f3b
I5571
sV\u80ba
I2462
sV\u693f
I3929
sV\u8abe
I7595
sV\u5641
I8532
sV\u5045
I6750
sV\u71c4
I1286
sV\u5a49
I3961
sV\u65cc
I1572
sV\u69d4
I3791
sV\u7259
I2613
sV\u93d8
I2981
sV\u50da
I3775
sV\u7c5d
I4943
sV\u6661
I2040
sV\u87e0
I2970
sV\u6065
I2501
sV\u576b
I7006
sV\u5b73
I3448
sV\u7cf2
I3336
sV\u4f7b
I5289
sV\u60fa
I6019
sV\u7c83
I4577
sV\u9b02
I8146
sV\u7287
I5371
sV\u9106
I6138
sV\u5408
I668
sV\u6493
I6278
sV\u5d99
I4988
sV\u909b
I3250
sV\u539d
I5973
sV\u969f
I4118
sV\u6e24
I3351
sV\u6428
I5936
sV\u7bad
I2238
sV\u71b1
I2692
sV\u77b5
I2334
sV\u4f3a
I4891
sV\u823c
I7539
sV\u99c1
I4332
sV\u52c7
I4041
sV\u7146
I7352
sV\u95c9
I4097
sV\u81d1
I7334
sV\u9f5a
I5416
sV\u525c
I3808
sV\u76df
I4209
sV\u6ce3
I758
sV\u8166
I2683
sV\u98eb
I3595
sV\u9eef
I1819
sV\u51f1
I3976
sV\u7070
I1232
sV\u57f5
I7144
sV\u8af7
I3288
sV\u627c
I849
sV\u5b82
I5391
sV\u9e84
I5750
sV\u8a8c
I4269
sV\u6715
I4857
sV\u7996
I4788
sV\u7f9a
I8566
sV\u6ba2
I1558
sV\u8f25
I6617
sV\u7e2f
I7500
sV\u7433
I4321
sV\u56b4
I256
sV\u85be
I5751
sV\u74c8
I6163
sV\u8e4f
I7723
sV\u8453
I5567
sV\u7d59
I5576
sV\u735d
I7825
sV\u92dc
I7913
sV\u6961
I5724
sV\u88e0
I7883
sV\u586b
I2533
sV\u5473
I342
sV\u6ffa
I739
sV\u7d83
I2004
sV\u9a02
I4456
sV\u5f04
I2117
sV\u7387
I3603
sV\u9006
I2059
sV\u8212
I584
sV\u7d18
I5323
sV\u731c
I2165
sV\u979f
I6897
sV\u8da3
I260
sV\u4ea5
I2992
sV\u83a7
I5429
sV\u2026
I6117
sV\u9b2c
I73
sV\u70b1
I6281
sV\u9130
I1209
sV\u5232
I7544
sV\u76b5
I7204
sV\u6cb9
I2677
sV\u62bd
I1187
sV\u98c1
I8306
sV\u5dc3
I6362
sV\u764a
I7192
sV\u8acd
I5439
sV\u4fcf
I8042
sV\u6c4e
I2768
sV\u535c
I255
sV\u77df
I4955
sV\u8a62
I322
sV\u5aed
I6243
sV\u50f1
I8181
sV\u6d78
I1494
sV\u81fb
I6246
sV\u9980
I5755
sV\u7409
I3478
sV\u9588
I5689
sV\u8b8c
I3759
sV\u6615
I4366
sV\u7896
I8128
sV\u511b
I5869
sV\u7e9a
I2766
sV\u571f
I545
sV\u749e
I3994
sV\u8821
I3070
sV\u6aa2
I1103
sV\u8e25
I6471
sV\u792b
I833
sV\u51b0
I169
sV\u7533
I3558
sV\u6b37
I6029
sV\u613b
I8579
sV\u8eba
I8664
sV\u673f
I6979
sV\u79c0
I2351
sV\u5e45
I3236
sV\u894b
I8479
sV\u67d4
I1991
sV\u58d6
I3744
sV\u7c59
I4128
sV\u5eda
I1855
sV\u725d
I6304
sV\u93dc
I6283
sV\u8fe4
I1564
sV\u6469
I3251
sV\u85e8
I7384
sV\u596b
I4230
sV\u5f6f
I6932
sV\u9675
I1654
sV\u8c79
I1350
sV\u827d
I7176
sV\u64fe
I1076
sV\u5a00
I7974
sV\u5c04
I1172
sV\u5608
I2685
sV\u5f99
I2791
sV\u929b
I5741
sV\u701c
I5685
sV\u6c24
I2176
sV\u6628
I2120
sV\u5f2e
I3653
sV\u5132
I3474
sV\u75b5
I4687
sV\u6fb9
I785
sV\u8e38
I4978
sV\u803c
I7649
sV\u9bc1
I4443
sV\u9dc5
I8779
sV\u50c7
I6745
sV\u97c9
I2109
sV\u754a
I4297
sV\u6f4e
I5345
sV\u83d1
I4727
sV\u85d5
I2036
sV\u5e58
I3734
sV\u505c
I2887
sV\u74df
I6506
sV\u975e
I538
sV\u60e7
I7147
sV\u9aeb
I5126
sV\u856a
I1130
sV\u786c
I1853
sV\u9cef
I8080
sV\u53f1
I3968
sV\u82fb
I5062
sV\u84ff
I5091
sV\u7b01
I8628
sV\u5982
I68
sV\u7d05
I76
sV\u7709
I784
sV\u9688
I3036
sV\u558a
I8672
sV\u690d
I2632
sV\u6311
I2916
sV\u6515
I7244
sV\u8494
I2774
sV\u9f19
I2521
sV\u541f
I93
sV\u779e
I4989
sV\u8729
I3897
sV\u7633
I3854
sV\u91b2
I3269
sV\u8dba
I3857
sV\u87be
I4528
sV\u9047
I587
sV\u76c8
I1259
sV\u8653
I7076
sV\u64d4
I2811
sV\u5bd6
I7310
sV\u9ed8
I307
sV\u90dc
I7250
sV\u57de
I7011
sV\u6b61
I900
sV\u8ae0
I4489
sV\u6d65
I3111
sV\u8ce4
I2363
sV\u5c6f
I1492
sV\u7fee
I3417
sV\u9371
I5918
sV\u6bf6
I5174
sV\u6dfa
I806
sV\u5b00
I5812
sV\u7f83
I2522
sV\u9802
I136
sV\u7187
I5453
sV\u9206
I7698
sV\u5708
I5930
sV\u6793
I8047
sV\u8012
I3243
sV\u9997
I6140
sV\u939b
I7940
sV\u711c
I4990
sV\u959f
I4353
sV\u6b20
I2115
sV\u8fa3
I2292
sV\u6728
I1757
sV\u78ad
I4783
sV\u992c
I6444
sV\u74b5
I4117
sV\u8f38
I1831
sV\u60bd
I0
sV\u5fc3
I337
sV\u7246
I381
sV\u96c9
I2418
sV\u744a
I7030
sV\u6e4e
I4546
sV\u82d1
I1407
sV\u6052
I5832
sV\u5f58
I7379
sV\u515c
I3798
sV\u75df
I6505
sV\u965e
I5575
sV\u8862
I519
sV\u8266
I2803
sV\u9beb
I8217
sV\u9def
I3729
sV\u7370
I2461
sV\u97f3
I1934
sV\u6f78
I4242
sV\u617c
I5257
sV\u85ff
I1018
sV\u9d84
I2381
sV\u7609
I5483
sV\u9788
I7966
sV\u4e8e
I3219
sV\u6211
I565
sV\u8594
I1265
sV\u5917
I8010
sV\u7a96
I5945
sV\u901d
I1409
sV\u769e
I5136
sV\u68a2
I1007
sV\u8629
I5619
sV\u59ac
I1616
sV\u7d2f
I2621
sV\u633b
I1422
sV\u8cba
I4359
sV\u653f
I2406
sV\u5a41
I3416
sV\u7bc0
I1540
sV\u5c45
I1023
sV\u9147
I5006
sV\u5649
I5219
sV\u69cc
I5055
sV\u63d0
I1914
sV\u5ad6
I4238
sV\u7e59
I8494
sV\u705d
I6231
sV\u91dc
I4937
sV\u56de
I552
sV\u6a61
I3299
sV\u87e8
I8391
sV\u5b6b
I258
sV\u5d6f
I3317
sV\u5773
I1945
sV\u807d
I1850
sV\u66fe
I702
sV\u5c00
I8212
sV\u9f02
I7691
sV\u7687
I431
sV\u5008
I7094
sV\u6a8f
I7146
sV\u890e
I7821
sV\u8712
I6339
sV\u9e97
I2182
sV\u5999
I1228
sV\u579d
I6917
sV\u6028
I823
sV\u592e
I3624
sV\u9234
I1727
sV\u863c
I2195
sV\u9dc1
I2374
sV\u58c3
I5802
sV\u8fcd
I4585
sV\u5858
I1534
sV\u9b5a
I857
sV\u68e3
I3848
sV\u8f62
I7089
sV\u5fed
I6579
sV\u9aef
I2033
sV\u7470
I3804
sV\u53f5
I5914
sV\u7274
I8211
sV\u8ef7
I7504
sV\u84fb
I4250
sV\u667c
I2954
sV\u5f82
I561
sV\u5586
I7780
sV\u7109
I3130
sV\u9088
I3570
sV\u8490
I4431
sV\u7d96
I4996
sV\u9919
I4581
sV\u541b
I1557
sV\u7b9a
I6526
sV\u8b25
I7656
sV\u8129
I2028
sV\u7c2b
I2297
sV\u63aa
I6537
sV\u99ae
I397
sV\u97b2
I7232
sV\u623f
I77
sV\u81be
I2944
sV\u7ac4
I4405
sV\u5149
I455
sV\u70c8
I384
sV\u4f4d
I1774
sV\u6ecc
I3142
sV\u64d0
I4152
sV\u62d4
I563
sV\u5dd6
I462
sV\u96dc
I1788
sV\u6d61
I8563
sV\u6b65
I305
sV\u8ae4
I5749
sV\u9375
I5631
sV\u6df6
I8428
sV\u8979
I6942
sV\u6bfa
I5622
sV\u61fe
I4721
sV\u9e02
I2171
sV\u7787
I8754
sV\u6193
I5806
sV\u5899
I5460
sV\u9f2c
I8370
sV\u582e
I6350
sV\u5632
I3632
sV\u7e42
I4958
sV\u57c7
I7107
sV\u8ecd
I969
sV\u684e
I4970
sV\u84d1
I1596
sV\u6652
I8531
sV\u82d5
I4751
sV\u9c56
I2045
sV\u5958
I5857
sV\u75db
I1610
sV\u9a5a
I492
sV\u905e
I1464
sV\u8e62
I4993
sV\u67e7
I8336
sV\u8466
I1217
sV\u9deb
I6587
sV\u7570
I160
sV\u52f5
I4902
sV\u8ff7
I371
sV\u6978
I2979
sV\u85fb
I2344
sV\u677c
I2951
sV\u7c01
I3439
sV\u7a05
I2457
sV\u5486
I4620
sV\u7009
I1346
sV\u6215
I7022
sV\u5f17
I5700
sV\u6ea2
I1680
sV\u8a25
I5364
sV\u64a6
I5189
sV\u7d2b
I209
sV\u5fac
I4458
sV\u7b2f
I6971
sV\u55b0
I5997
sV\u96b2
I3890
sV\u8cb6
I5493
sV\u653b
I3602
sV\u5c41
I8180
sV\u7bc4
I4196
sV\u5049
I6122
sV\u71c8
I1030
sV\u4e4d
I343
sV\u8b4f
I4690
sV\u65d0
I3375
sV\u8153
I4719
sV\u63d4
I5879
sV\u99d8
I3779
sV\u5ada
I6872
sV\u97dc
I1958
sV\u50de
I4680
sV\u6c61
I4474
sV\u6069
I569
sV\u81e8
I298
sV\u5d6b
I5646
sV\u9471
I6361
sV\u76f2
I4611
sV\u4f77
I8476
sV\u8879
I8063
sV\u6afa
I6033
sV\u5e00
I7237
sV\u9d02
I4678
sV\u5804
I8546
sV\u7487
I2614
sV\u9706
I4193
sV\u5208
I4455
sV\u688f
I4971
sV\u8b0e
I5447
sV\u6293
I5347
sV\u5b99
I98
sV\u969b
I1200
sV\u559d
I5481
sV\u6e20
I1679
sV\u8aa3
I4202
sV\u84a7
I8207
sV\u7dad
I1065
sV\u4f36
I3403
sV\u65bd
I1109
sV\u843c
I3553
sV\u7d42
I395
sV\u54c7
I6569
sV\u7746
I6692
sV\u4ecb
I4339
sV\u6b4e
I1659
sV\u81d5
I6469
sV\u7cd7
I6678
sV\u9f56
I5417
sV\u76db
I1397
sV\u70df
I2845
sV\u8766
I2754
sV\u9eeb
I7577
sV\u816a
I6962
sV\u7c6c
I1207
sV\u98ef
I2853
sV\u7670
I7707
sV\u8cf7
I5536
sV\u86fb
I3982
sV\uff01
I4009
sV\u9e80
I6870
sV\u5d82
I923
sV\u518a
I3674
sV\u8c8c
I2066
sV\u6115
I5695
sV\u7f96
I3013
sV\u9b19
I7126
sV\u501f
I1095
sV\u739e
I8480
sV\u8925
I2123
sV\u7e2b
I3471
sV\u782f
I8425
sV\u9bae
I137
sV\u50b4
I4471
sV\u89ba
I396
sV\u83be
I7341
sV\u9a43
I4094
sV\u5349
I2864
sV\u8e4b
I1744
sV\u6ccc
I5538
sV\u8253
I2048
sV\u60d4
I5099
sV\u5fd6
I5992
sV\u9ad8
I67
sV\u59da
I4239
sV\u755d
I1910
sV\u6f61
I5975
sV\u6965
I7850
sV\u6369
I5737
sV\u6ff6
I6658
sV\u63fe
I7478
sV\u7587
I3515
sV\u5308
I4720
sV\u8a0e
I1842
sV\u9d97
I4677
sV\u751c
I5558
sV\u919f
I8413
sV\u4ea1
I1151
sV\u6f20
I1863
sV\u6328
I5337
sV\u9730
I2015
sV\u9134
I1894
sV\u9ec1
I6936
sV\u5bc3
I6786
sV\u55c7
I4519
sV\u4fcb
I8032
sV\u704a
I8015
sV\u6a4e
I4881
sV\u86d1
I6496
sV\u6452
I8412
sV\u7dd7
I5141
sV\u5b58
I2925
sV\u77db
I4476
sV\u985a
I365
sV\u555c
I757
sV\u71df
I1319
sV\u925e
I4716
sV\u4f60
I5929
sV\u6be3
I7778
sV\u8c62
I5560
sV\u5ced
I1250
sV\u7d6c
I8094
sV\u56f1
I8319
sV\u50f5
I5384
sV\u7174
I5071
sV\u6b78
I421
sV\u87fb
I1974
sV\u7e01
I6641
sV\u7805
I7713
sV\u6c0d
I4938
sV\u6015
I1846
sV\u5d17
I5221
sV\u7e96
I291
sV\u789a
I5351
sV\u511f
I5278
sV\u8e21
I7658
sV\u7333
I5783
sV\u8eb6
I6930
sV\u613f
I6125
sV\u82be
I2937
sV\u7fc0
I8486
sV\u9b43
I6398
sV\u5249
I4946
sV\u73c8
I4915
sV\u894f
I4523
sV\u67d0
I5856
sV\u61d4
I7222
sV\u5ed6
I5636
sV\u58da
I1915
sV\u745d
I8453
sV\u95dc
I798
sV\u52de
I632
sV\u5f6b
I4335
sV\u5373
I1693
sV\u9075
I3555
sV\u8a79
I5616
sV\u68fa
I4925
sV\u62fe
I2519
sV\u8181
I7175
sV\u6c08
I3079
sV\u568f
I5076
sV\u9f95
I3958
sV\u6599
I1249
sV\u871a
I3074
sV\u9322
I2103
sV\u77a5
I3440
sV\u9926
I7047
sV\u7da9
I8724
sV\u5c28
I7891
sV\u80ab
I7160
sV\u86af
I4658
sV\u8cb3
I4379
sV\u6b32
I6
sV\u4fb5
I374
sV\u92b7
I1416
sV\u7136
I159
sV\u98bb
I2741
sV\u773a
I3290
sV\u8c48
I637
sV\u9850
I8735
sV\u7cd3
I6534
sV\u6458
I1247
sV\u6a5c
I4029
sV\u5ae7
I8346
sV\u63ed
I2027
sV\u69f1
I5246
sV\u75f9
I3824
sV\u977a
I5146
sV\u9d7e
I2653
sV\u8403
I5891
sV\u8a07
I3003
sV\u6986
I2051
sV\u900b
I33
sV\u530d
I5423
sV\u758e
I1141
sV\u5911
I6564
sV\u9c13
I6465
sV\u7b92
I5252
sV\u5f15
I1740
sV\u681b
I8731
sV\u6e1f
I3971
sV\u90a0
I3832
sV\u53a2
I8138
sV\u96a4
I4031
sV\u5faa
I945
sV\u832d
I5053
sV\u62ac
I8701
sV\u68b0
I6286
sV\u8f35
I8383
sV\u6eb4
I7143
sV\u5237
I3305
sV\u9b3d
I6134
sV\u7abc
I7643
sV\u83c2
I5359
sV\u734d
I6387
sV\u52cc
I7563
sV\u7f55
I5003
sV\u885b
I1094
sV\u67da
I347
sV\u8e5f
I3181
sV\u6dde
I8151
sV\u9463
I4186
sV\u79e6
I1406
sV\u5d69
I2605
sV\u606b
I6832
sV\u666f
I838
sV\u88f0
I8041
sV\u7277
I5813
sV\u51f6
I1845
sV\u57fa
I913
sV\u7e7f
I7482
sV\u5dfe
I2793
sV\u6100
I7721
sV\u6704
I7761
sV\u8c89
I6401
sV\u928d
I4770
sV\u7910
I7669
sV\u5d93
I6242
sV\u9e95
I4977
sV\u6499
I7435
sV\u861a
I1897
sV\u6a9d
I892
sV\u76a5
I7542
sV\u9826
I7291
sV\u87af
I4929
sV\u8db3
I1034
sV\u7c3e
I1190
sV\u65c3
I4411
sV\u71cb
I5027
sV\u9f54
I5892
sV\u6558
I3933
sV\u8add
I8165
sV\u6b5c
I7246
sV\u4fdf
I619
sV\u90e1
I3225
sV\u7160
I7777
sV\u55e3
I3248
sV\u5be7
I680
sV\u9ce9
I3869
sV\u7d68
I6661
sV\u62ed
I1379
sV\u68f1
I6459
sV\u8a72
I3950
sV\u9076
I3293
sV\u7afd
I1369
sV\u8b07
I6194
sV\u970f
I1921
sV\u7a92
I7102
sV\u5e15
I6311
sV\u8b9c
I4845
sV\u5eaa
I7119
sV\u63ac
I4781
sV\u8831
I5969
sV\u69b0
I5277
sV\u8e35
I5504
sV\u6fb4
I6352
sV\u6041
I6768
sV\u6645
I8255
sV\u8eca
I54
sV\u59d0
I7132
sV\u9ad2
I6263
sV\u7e55
I7366
sV\u8357
I6726
sV\u66da
I6347
sV\u8f5f
I5029
sV\u6cde
I7869
sV\u5061
I8176
sV\u72e2
I7551
sV\u5c69
I5344
sV\u676f
I1168
sV\u89f0
I7269
sV\u8ff4
I222
sV\u7377
I5415
sV\u50f6
I3495
sV\u56fa
I1612
sV\u7f7f
I7993
sV\u6200
I379
sV\u8585
I6550
sV\u918d
I2227
sV\u700c
I8559
sV\u548f
I4399
sV\u9b91
I3812
sV\u7c14
I8423
sV\u851a
I4535
sV\u699d
I6575
sV\u8f1e
I4206
sV\u9122
I4285
sV\u75a5
I7178
sV\u9b26
I8164
sV\u7fa9
I483
sV\u5e28
I7238
sV\u82ab
I8435
sV\u84af
I5779
sV\u672e
I2352
sV\u6932
I4883
sV\u7336
I274
sV\u753a
I4997
sV\u7f3e
I3116
sV\u8e48
I4126
sV\u74cf
I2619
sV\u574e
I4019
sV\u9c54
I7622
sV\u89dd
I653
sV\u93e1
I1883
sV\u95e5
I4311
sV\u7464
I1176
sV\u876e
I6348
sV\u8972
I5095
sV\u6df5
I744
sV\u77f9
I2972
sV\u587c
I574
sV\u9f7e
I7795
sV\u6182
I1004
sV\u6b86
I5862
sV\u4f09
I3712
sV\u920b
I7976
sV\u778e
I5375
sV\u9e13
I7956
sV\u6017
I7584
sV\u6a1b
I4190
sV\u889c
I5611
sV\u51a2
I2259
sV\u7827
I3742
sV\u5ba6
I981
sV\u9ea8
I7833
sV\u5daa
I3806
sV\u4e33
I8475
sV\u6cb4
I2299
sV\u9739
I1297
sV\u76b8
I7186
sV\u993d
I7935
sV\u78bc
I8564
sV\u5c3f
I5847
sV\u81c2
I924
sV\u6545
I11
sV\u97ce
I5681
sV\u7b51
I4073
sV\u99d2
I2671
sV\u7d55
I781
sV\u63d6
I450
sV\u8a5b
I5523
sV\u6fde
I8119
sV\u9663
I1375
sV\u9867
I887
sV\u7be6
I5621
sV\u5f69
I1092
sV\u7dea
I7365
sV\u646f
I5114
sV\u8cf4
I1471
sV\u53f6
I3846
sV\u98fc
I4602
sV\u6504
I224
sV\u710c
I7796
sV\u7b10
I8586
sV\u7d14
I428
sV\u8216
I6902
sV\u689d
I1598
sV\u8e1e
I3385
sV\u5320
I1832
sV\u9022
I890
sV\u74a5
I8177
sV\u5524
I8651
sV\u5f28
I7283
sV\u83ab
I289
sV\u85af
I6355
sV\u6832
I4877
sV\u91b7
I7814
sV\u7236
I2851
sV\u9dbf
I4077
sV\u7e3e
I4296
sV\u8340
I2847
sV\u914c
I2366
sV\u75cf
I3554
sV\u564e
I5366
sV\u5852
I7582
sV\u86d9
I1312
sV\u88dd
I1559
sV\u7360
I6041
sV\u7564
I4686
sV\u59e7
I6674
sV\u7f68
I3754
sV\u8872
I1398
sV\u9276
I6764
sV\u78fd
I4774
sV\u597c
I5041
sV\u8703
I4616
sV\u8907
I3542
sV\u4e09
I488
sV\u930b
I8195
sV\u500d
I2481
sV\u768e
I1162
sV\u5a11
I3561
sV\u9f13
I1242
sV\u6117
I8368
sV\u8798
I7882
sV\u6d1f
I4447
sV\u4e9e
I1050
sV\u95a4
I1710
sV\u7927
I6319
sV-
I5771
sV\u61ac
I7590
sV\u8a31
I102
sV\u6db4
I4825
sV\u5137
I3713
sV\u983d
I7989
sV\u5d3f
I6192
sV\u6241
I2026
sV\u8cca
I2016
sV\u51cc
I1278
sV\u96ce
I7556
sV\u5bd0
I1988
sV\u5dd4
I2097
sV\u8157
I7943
sV\u62d6
I2221
sV\u64da
I4492
sV\u5261
I2862
sV\u7ae6
I5103
sV\u636b
I3535
sV\u81ec
I6424
sV\u54fa
I3194
sV\u99fc
I8345
sV\u8385
I4417
sV\u8989
I6174
sV\u548b
I6522
sV\u978d
I2579
sV\u5893
I3226
sV\u7a14
I4034
sV\u6199
I5995
sV\u4e1c
I6842
sV\u5420
I3833
sV\u9722
I2725
sV\u5224
I2102
sV\u9d26
I2081
sV\u79a9
I8238
sV\u9b2a
I6020
sV\u6f32
I2146
sV\u96b7
I5023
sV\u733a
I6663
sV\u5fbd
I2941
sV\u793e
I527
sV\u8244
I7978
sV\u6ec7
I6859
sV\u964c
I1025
sV\u78d3
I7546
sV\u9a54
I6435
sV\u81d9
I2192
sV\u6e5c
I4135
sV\u95e1
I5794
sV\u7460
I5570
sV\u7868
I7194
sV\u816e
I4785
sV\u6df1
I349
sV\u7ffd
I7732
sV\u5e7c
I3566
sV\u8003
I3430
sV\u6b8a
I1033
sV\u570d
I1859
sV\u5d11
I2728
sV\u9813
I1311
sV\u8098
I1637
sV\u6c1b
I666
sV\u6a1f
I4300
sV\u7023
I2577
sV\u57a2
I1468
sV\u7e27
I5158
sV\u98a8
I309
sV\u5637
I6857
sV\u9139
I8221
sV\u774d
I6691
sV\u91ce
I62
sV\u7b55
I7828
sV\u65d6
I3613
sV\u63da
I516
sV\u4f5d
I8320
sV\u9063
I1208
sV\u77e2
I1457
sV\u7de6
I6349
sV\u5969
I4130
sV\u7bea
I4768
sV\u86ec
I3314
sV\u8af4
I7033
sV\u55f6
I8683
sV\u9efc
I4756
sV\u7a7f
I1181
sV\u6500
I1435
sV\u6908
I7166
sV\u558b
I4530
sV\u968d
I6035
sV\u300e
I5825
sV\u7d10
I4137
sV\u5993
I3320
sV\u821a
I8400
sV\u6e9d
I1748
sV\u74a1
I6144
sV\u78a9
I2267
sV\u85ab
I6221
sV\u6e32
I6180
sV\u7436
I3398
sV\u9dbb
I1314
sV\u723a
I4634
sV\u61c3
I3083
sV\u8344
I7402
sV\u6fc7
I6618
sV\u73cf
I4092
sV\u504e
I2477
sV\u9b54
I559
sV\u80d9
I4357
sV\u6158
I865
sV\u6f5c
I6827
sV\u7968
I8652
sV\u66ed
I8497
sV\u6cf1
I4390
sV\u8e72
I4141
sV\u70f9
I484
sV\u5178
I3345
sV\u5f7c
I1613
sV\u8103
I5478
sV\u6c86
I2576
sV\u560d
I5498
sV\u930f
I4954
sV\u708e
I3392
sV\u5c11
I53
sV\u9913
I2966
sV\u7e92
I5933
sV\u6717
I2216
sV\u6d1b
I884
sV\u8f9c
I2816
sV\u56a2
I8749
sV\u99a8
I1617
sV\u862d
I1289
sV\u71b8
I8250
sV\u5b3f
I8778
sV\u6849
I8200
sV\u90ce
I1689
sV\u5bd4
I5916
sV\u8757
I5233
sV\u64d6
I6954
sV\u62da
I6916
sV\u4e5d
I221
sV\u8b5f
I7547
sV\u9163
I86
sV\u5265
I6446
sV\u9f67
I5486
sV\u7ce6
I8225
sV\u5869
I8733
sV\u7aea
I5785
sV\u87ec
I1943
sV\u4ef2
I2810
sV\u8bf4
I6845
sV\u54f6
I8469
sV\u52fa
I3113
sV\u9f91
I8769
sV\u7e10
I7766
sV\u7814
I623
sV\u6399
I6541
sV\u811a
I1039
sV\u80af
I560
sV\u6d32
I2247
sV\u7736
I5467
sV\u9ebb
I1486
sV\u5dbd
I2342
sV\u98bf
I7442
sV\u8640
I5539
sV\u4f46
I285
sV\u8a48
I8101
sV\u944c
I6741
sV\u70cf
I1105
sV\u5d52
I3341
sV\u9854
I5015
sV\u6258
I2114
sV\u8ddd
I1510
sV\u6c5c
I3849
sV\u97e1
I5540
sV\u52e3
I4377
sV\u7064
I6153
sV\u65ed
I2727
sV\u6ff1
I1124
sV\u9776
I4507
sV\u5278
I5373
sV\u917a
I5799
sV\u5c7c
I6687
sV\u8203
I3831
sV\u6582
I782
sV\u6f86
I3222
sV\u900f
I1985
sV\u738e
I1919
sV\u5915
I415
sV\u6417
I4329
sV\u6e1b
I1003
sV\u8c9c
I5644
sV\u681f
I7790
sV\u7223
I7760
sV\u55a2
I8335
sV\u7c27
I1722
sV\u9aa8
I1412
sV\u852d
I1908
sV\u8935
I6066
sV\u5437
I7276
sV\u9d3d
I8194
sV\u7cbc
I5048
sV\u85c2
I3628
sV\u6145
I4866
sV\u6b49
I6507
sV\u5ed0
I2106
sV\u7955
I1656
sV\u8457
I1338
sV\u67d6
I6999
sV\u5761
I1750
sV\u5165
I170
sV\u9c67
I5490
sV\u7fe6
I1299
sV\u5b69
I3842
sV\u79ea
I698
sV\u84ec
I29
sV\u606f
I780
sV\u88f4
I1647
sV\u57f6
I7975
sV\u92f8
I5051
sV\u7e7b
I4689
sV\u51fa
I993
sV\u6700
I1386
sV\u8085
I938
sV\u578b
I5131
sV\u750c
I960
sV\u518f
I4973
sV\u9e91
I4864
sV\u7f10
I8707
sV\u5b93
I4246
sV\u8616
I5303
sV\u76a1
I7117
sV\u5720
I7120
sV\u7aa9
I6047
sV\u87ab
I3057
sV\u622e
I1891
sV\u52b9
I4314
sV\u703a
I7911
sV\u7a3e
I8355
sV\u8740
I4667
sV\u63c3
I8405
sV\u6dc7
I4313
sV\u8b48
I7535
sV6
I5475
sV\u524e
I2844
sV\u9954
I6336
sV\u82d9
I7581
sV\u4fdb
I3494
sV\u8cdd
I7507
sV\u7760
I878
sV\u53e3
I687
sV\u7164
I2129
sV\u5de7
I149
sV\u9ae9
I4220
sV\u64ed
I5487
sV\u826e
I6343
sV\u68f5
I7685
sV\u9676
I597
sV\u72f9
I3740
sV\u5378
I2184
sV\u907a
I984
sV\u8303
I3069
sV\u8d07
I5719
sV\u6e86
I6367
sV\u970b
I7136
sV\u540d
I265
sV\u910f
I7532
sV\u5e11
I6255
sV\u7c92
I1674
sV\u8398
I5657
sV\u97a0
I4081
sV\u54a2
I7947
sV\u5ea6
I436
sV\u65ac
I1505
sV\u8835
I5649
sV\u69b4
I3444
sV\u9239
I7013
sV\u6641
I6118
sV\u84c2
I3847
sV\u88ca
I6364
sV\u55cc
I6627
sV\u59d4
I2142
sV\u66d6
I3483
sV\u60da
I3900
sV\u895f
I181
sV\u74e2
I3465
sV\u5065
I861
sV\u8ff0
I4820
sV\u89f4
I1923
sV\u7f7b
I8323
sV\u9dfc
I8649
sV\u797f
I2485
sV\u8981
I846
sV\u7a0c
I8190
sV\u5e8f
I239
sV\u9191
I3608
sV\u6d99
I6677
sV\u851e
I7820
sV\u79a1
I4549
sV\u5820
I4170
sV\u9b22
I184
sV\u5e24
I3639
sV\u88ab
I267
sV\u972a
I4112
sV\u6d2e
I3127
sV\u6332
I3517
sV\u7f3a
I3041
sV\u8840
I740
sV\u8e44
I1603
sV\u62c7
I6131
sV\u78cb
I4789
sV\u9a4c
I4945
sV\u7ecf
I6844
sV\u5d4e
I5923
sV\u9050
I99
sV\u74d3
I8772
sV\u5352
I1681
sV\u9654
I6101
sV\u8dd9
I4005
sV\u99e1
I5422
sV\u7860
I5240
sV\u5ce3
I8098
sV\u7468
I8461
sV\u8d6e
I7016
sV\u61f1
I8577
sV\u67f5
I3166
sV\u7df9
I5128
sV\u73fd
I6145
sV\u6b82
I4282
sV\u8207
I1055
sV\u5111
I7781
sV\u9413
I7907
sV\u6a17
I3859
sV\u601b
I4984
sV\u661f
I613
sV\u98a0
I7991
sV\u7c23
I4161
sV\u5ba2
I34
sV\u9ea4
I1140
sV\u60b0
I5400
sV\u66b4
I272
sV\u503b
I8093
sV\u563f
I7193
sV\u4ec4
I647
sV\u81c6
I4479
sV\u87ca
I6383
sV\u7b4d
I1619
sV\u5acc
I1122
sV\u7151
I6148
sV\u69d6
I6987
sV\u865f
I122
sV\u65de
I8228
sV\u5961
I8398
sV\u9c63
I4457
sV\u5f65
I1980
sV\u71e6
I6054
sV\u686b
I5280
sV\u6e6f
I2161
sV\u6473
I5780
sV\u9cf8
I6736
sV\u5ffa
I7843
sV\u92fc
I3009
sV\u767f
I6695
sV\u55fe
I704
sV\u8881
I727
sV\u6900
I1165
sV\u8e85
I2100
sV\u9091
I3204
sV\u7110
I8083
sV\u5593
I7874
sV\u9695
I3623
sV\u8816
I4387
sV\u6c99
I909
sV\u629d
I5606
sV\u78a1
I8473
sV\u5920
I8679
sV\u74a9
I6230
sV\u962a
I5637
sV\u8faf
I5121
sV\u6232
I2241
sV\u5cb9
I8219
sV\u91bb
I6886
sV\u97bf
I7212
sV\u8f44
I3650
sV\u8548
I8581
sV\u79cb
I348
sV\u5c4e
I6001
sV\u8cd9
I6324
sV\u6d58
I4856
sV\u98e1
I2388
sV\u7960
I2886
sV\u9ee5
I6871
sV\u7f64
I8332
sV\u60f1
I2245
sV\u8272
I855
sV\u5d78
I6431
sV\u9e7a
I8341
sV\u72fd
I4701
sV\u537c
I7565
sV\u947e
I571
sV\u8307
I8276
sV\u5011
I6733
sV\u7292
I6911
sV\u611b
I2525
sV\u671f
I521
sV\u7327
I6747
sV\u50a6
I8705
sV\u95a8
I2904
sV\u8a2d
I2856
sV\u4f2f
I2239
sV1
I5778
sV\u7db8
I1450
sV\u513b
I2078
sV\u73bc
I6234
sV\u6841
I6200
sV\u8ac2
I1320
sV\u4fc4
I529
sV\u80c6
I8656
sV\u7a4d
I682
sV\u5bcc
I48
sV\u7051
I1077
sV\u92d2
I1438
sV\u7655
I7763
sV\u57d4
I6038
sV\u68d6
I5548
sV\u875f
I6434
sV\u7ae2
I5725
sV\u9367
I7626
sV\u696b
I2658
sV\u76ea
I2571
sV\u6f6f
I3346
sS'<EOP>'
p3
I8782
sV\u9df8
I7950
sV\u5efa
I967
sV\u777f
I4430
sV\u6a00
I7867
sV\u8d85
I2952
sV\u6c04
I7906
sV\u8789
I6795
sV\u6608
I6396
sV\u780c
I1961
sV\u5c8f
I5012
sV\u7210
I987
sV\u8b16
I7977
sV\u4e18
I2817
sV\u619d
I3021
sV\u871e
I6494
sV\u7ba1
I1363
sV\u5a20
I5888
sV\u9922
I6669
sV\u5c24
I1876
sV\u9326
I1697
sV\u5628
I8145
sV\u8caf
I480
sV\u86b3
I6957
sV\u98b7
I8395
sV\u7b36
I7987
sV\u5fb9
I19
sV\u7d3a
I3918
sV\u51bd
I3883
sV\u773e
I7121
sV\u8a40
I6544
sV\u6ec3
I7676
sV\u60c7
I5893
sV\u8648
I7839
sV\u7acb
I226
sV\u984c
I1930
sV\u5f4e
I2064
sV\u5152
I124
sV\u6e58
I2532
sV\u7a60
I2821
sV\u5ee3
I868
sV\u9de5
I2035
sV\u7c64
I5066
sV\u50e7
I791
sV\u69ed
I7427
sV\u8172
I7459
sV\u7ff9
I1591
sV\u5e78
I2805
sV\u6982
I1783
sV\u8007
I8746
sV\u9a0b
I6303
sV\u590d
I6843
sV\u7f8e
I1016
sV\u7192
I3625
sV\u6817
I1240
sV\u8e98
I5503
sV\u621b
I1392
sV\u809c
I5890
sV\u7e23
I1767
sV\u7027
I4917
sV\u53a6
I8090
sV\u96a8
I787
sV\u55aa
I1651
sV\u892d
I79
sV\u8331
I3279
sV\u9f39
I5069
sV\u523b
I1404
sV\u913d
I5332
sV\u6749
I2905
sV\u794d
I6922
sV\u7351
I7029
sV\u8857
I1526
sV\u6bd6
I5629
sV\u4f59
I498
sV\u825b
I2047
sV\u6dda
I1626
sV\u67de
I4963
sV\u5d65
I8059
sV\u73e6
I8706
sV\u5769
I7038
sV\u6a6b
I2038
sV\u4fee
I1323
sV\u84f4
I3945
sV\u5bf6
I1939
sV\u747f
I7601
sV\u4f83
I7067
sV\u8c85
I6046
sV\u6d04
I3489
sV\u6708
I465
sV\u5b8b
I2168
sV\u790c
I6310
sV\u5793
I4490
sV\u7514
I7037
sV\u8a16
I3452
sV\u4f18
I6633
sV\u609d
I5687
sV\u7aa1
I7645
sV\u7ca5
I3538
sV\u5d24
I6329
sV\u5728
I430
sV\u8bab
I6781
sV\u8daf
I4683
sV\u87b3
I5156
sV\u93bb
I6720
sV\u7c3a
I5096
sV\u95bf
I6759
sV\u8b40
I6596
sV\u6fc3
I503
sV\u61c7
I5734
sV\u7bcb
I1987
sV\u994c
I3055
sV\u6f58
I1814
sV\u80dd
I4526
sV\u615c
I5925
sV\u9ae1
I8248
sV\u7b60
I1362
sV\u9ce5
I792
sV\u96e9
I5100
sV\u7768
I4918
sV\u8e6e
I8185
sV\u62f1
I3757
sV\u8072
I318
sV\u70fd
I2806
sV\u517c
I338
sV\u8f03
I1856
sV\u8107
I7491
sV\u6286
I8327
sV\u9b0b
I7957
sV\u5211
I1441
sV\u9713
I2250
sV\u7092
I6714
sV\u5415
I6763
sV\u819c
I2071
sV\u58a2
I7046
sV\u9da4
I7722
sV\u97a8
I7801
sV\u882d
I1180
sV\u8435
I5502
sV\u5937
I745
sV\u7fb8
I1573
sV\u88c2
I3432
sV\u6649
I691
sV\u84ca
I5047
sV\u9ece
I3068
sV\u7251
I7135
sV\u7455
I4203
sV\u55d4
I2166
sV\u4e59
I3887
sV\u6cda
I4181
sV\u855f
I7859
sV\u78e2
I8364
sV\u5c65
I943
sV\u9167
I6883
sV\u5669
I2718
sV\u6d6f
I4916
sV\u83f0
I2467
sV\u6773
I1725
sV\u85f4
I5801
sV\u737b
I2417
sV\u91fc
I8741
sV\u757f
I3707
sV\u8d81
I965
sV\u9f8d
I217
sV\u9591
I304
sV\u8d16
I4828
sV\u8b1a
I7163
sV\u679d
I63
sV\u811e
I6774
sV\u5c20
I7295
sV\u5028
I7097
sV\u8cab
I2573
sV\u59b9
I2233
sV\u68c3
I1828
sV\u66c7
I4222
sV\u594e
I6061
sV\u4ed7
I499
sV\u7c60
I128
sV\u7068
I8567
sV\u896e
I8617
sV\u65f1
I2284
sV\u63f5
I8593
sV\u9d76
I2325
sV\u5878
I7010
sV\u8803
I6937
sV\u6f82
I6480
sV\u8607
I1067
sV\u6586
I8058
sV\u638a
I5565
sV\u9a0f
I3944
sV\u798e
I5324
sV\u9013
I8064
sV\u5315
I1620
sV\u621f
I719
sV\u7823
I5723
sV\u7627
I4699
sV\u55a6
I6767
sV\u90a8
I3399
sV\u53aa
I6986
sV\u8f2d
I1966
sV\u64b0
I5448
sV\u8335
I3093
sV\u5e37
I2164
sV\u543b
I1313
sV\u973d
I1962
sV\u6d41
I269
sV\u8fc2
I3497
sV\u83ca
I1387
sV\u7f4d
I3355
sV\u5ecc
I7961
sV\u52d4
I8102
sV\u6dd6
I6738
sV\u845b
I3592
sV\u6bda
I7031
sV\u825f
I4833
sV\u5d61
I8489
sV\u5b65
I3510
sV\u5169
I174
sV\u73ea
I2833
sV\u84f0
I6899
sV\u82f4
I6577
sV\u5bfa
I1062
sV\u8c81
I4753
sV\u8a85
I699
sV\u6b04
I2825
sV\u8089
I2101
sV\u6108
I1496
sV\uff0c
I5
sV\u5b8f
I5145
sV\u9295
I5236
sV\u669d
I2424
sV\u8dab
I6269
sV\u4ead
I306
sV\u81b3
I4401
sV\u95bb
I4281
sV\u703e
I1071
sV\u69c3
I4817
sV\u4e42
I4858
sV\u7dcb
I4072
sV\u5652
I7884
sV\u9354
I6170
sV\u4fd7
I479
sV\u88d9
I2700
sV\u675c
I2260
sV\u59e3
I8610
sV\u7b64
I5150
sV\u7168
I4619
sV\u886e
I3529
sV\u78f9
I5449
sV\u5978
I688
sV\u577c
I723
sV\u8707
I7306
sV\u628a
I325
sV\u788e
I1170
sV\u5411
I229
sV\u8998
I6214
sV\u651b
I7963
sV\u54a6
I6609
sV\u91a8
I6546
sV\u52aa
I2537
sV\u8431
I3081
sV\u65b0
I345
sV\u8235
I8406
sV\u5f37
I223
sV\u9839
I1837
sV\u963d
I7600
sV\u77bc
I8175
sV\u533f
I4448
sV\u6c41
I3663
sV\u84c6
I5537
sV\u7e4d
I6694
sV\u5fcc
I979
sV\u7451
I5865
sV\u96d2
I4263
sV\u7255
I3092
sV\u53d4
I3191
sV\u8f57
I2784
sV\u6cd6
I7057
sV\u6ada
I6370
sV\u60de
I7418
sV\u5a65
I8633
sV\u9767
I7516
sV\u74e6
I832
sV\u8fec
I8662
sV\u6173
I5984
sV\u83f4
I5306
sV\u7f77
I1601
sV\u5cf6
I237
sV\u99f8
I3891
sV\u50fe
I4373
sV\u6e00
I5664
sV\u8389
I7448
sV\u6208
I2358
sV\u7c0c
I1586
sV\u7014
I8626
sV\u891a
I743
sV\u659d
I1975
sV\u7fa1
I8719
sV\u5824
I910
sV\u73a9
I3722
sV\u8eab
I442
sV\u82b3
I1538
sV\u6532
I2935
sV\u7f36
I6463
sV\u5bb9
I594
sV\u96bb
I2337
sV\u793a
I2820
sV\u733e
I5494
sV\u8e40
I4188
sV\u6ac3
I3565
sV\u64c7
I3359
sV\u9650
I1410
sV\u9054
I518
sV\u6a58
I346
sV\u85dd
I2985
sV\u7e60
I8199
sV\u5ae3
I5549
sV\u7864
I3557
sV\u67f1
I1296
sV\u61f5
I1835
sV\u9f76
I4024
sV\u547c
I270
sV\u937e
I2623
sV\u4f01
I6093
sV\u8a03
I7233
sV\u6d82
I7399
sV\u8407
I2860
sV\u618a
I5748
sV\u980f
I5950
sV\u7b8e
I3819
sV\u5115
I6257
sV\u4f96
I5046
sV\u8a98
I3678
sV\u849c
I5697
sV\u5da2
I4167
sV\u4e2b
I6896
sV\u51aa
I4331
sV\u6cac
I8477
sV\u60b4
I2450
sV\u7ab8
I6316
sV\u563b
I2779
sV\u6f41
I3499
sV\u4ec0
I3972
sV\u8dc2
I4498
sV\u6945
I8410
sV\u87c6
I2755
sV\u6349
I2317
sV\u81ca
I3783
sV\u7d4d
I7931
sV\u56d0
I7316
sV\u95d2
I7903
sV\u8c57
I5060
sV\u865b
I23
sV\u6e6b
I2567
sV\u686f
I7522
sV\u6273
I6487
sV\u767b
I2364
sV\u8e81
I1303
sV\u6308
I3108
sV\u5f8b
I556
sV\u5393
I5645
sV\u9095
I4743
sV\u8e16
I7772
sV\u881a
I6965
sV\u649d
I5130
sV\u821e
I409
sV\u5924
I4090
sV\u89af
I4423
sV\u7e36
I5082
sV\u54bd
I1569
sV\u91bf
I4724
sV\u723e
I729
sV\u8944
I2426
sV\u8348
I7064
sV\u73d3
I8403
sV\u6b58
I4475
sV\u98e5
I8159
sV\u92e9
I1439
sV\u7368
I755
sV\u8a6e
I5948
sV\u7af9
I1152
sV\u5b78
I1321
sV\u557c
I382
sV\u4e01
I2535
sV\u6c82
I3693
sV\u5c0d
I930
sV\u5611
I6797
sV\u5015
I7264
sV\u6d17
I1417
sV\u8b98
I7784
sV\u671b
I249
sV\u859c
I2948
sV\u611f
I864
sV\u9fa0
I8071
sV\u99a4
I7919
sV\u6dac
I6297
sV\u67b0
I2915
sV5
I5476
sV\u5d37
I6293
sV\u7bb8
I2642
sV\u573b
I5961
sV\u75bc
I3666
sV\u4fc0
I7070
sV\u8cc2
I6236
sV\u6845
I7480
sV\u86c6
I5963
sV\u6249
I2620
sV\u7c4d
I1803
sV\u7055
I2869
sV\u875b
I7635
sV\u68da
I5459
sV\u5e61
I1604
sV\u7ce2
I6373
sV\u76e6
I6835
sV\u5269
I2491
sV\u8dec
I5683
sV\u696f
I4940
sV\u81f4
I663
sV\u5ef6
I1063
sV\u58fa
I1660
sV\u52fe
I3023
sV\u9181
I4074
sV\u9785
I3924
sV\u9d89
I5620
sV\u620c
I4484
sV\u9116
I6584
sV\u7b9d
I6322
sV\u5a1c
I2279
sV\u9d1e
I4670
sV\u8f2a
I1436
sV\u53ad
I491
sV\u7b32
I7674
sV\u5fb5
I2655
sV\u82b7
I4796
sV\u673a
I3585
sV\u6d3e
I2559
sV\u74c3
I5513
sV\u9644
I2611
sV\u7ac7
I454
sV\u60cb
I4887
sV\u5f4a
I3327
sV\u66cf
I7477
sV\u6cd3
I2145
sV\u8e54
I3612
sV\u52d7
I5858
sV\u7a5c
I5310
sV\u5edf
I947
sV\u81e1
I7559
sV\u6060
I6161
sV\u6664
I796
sV\u6c68
I3460
sV\u73ed
I931
sV\u5e74
I196
sV\u5101
I5068
sV\u9403
I1499
sV\u800b
I4441
sV\u7f8a
I1752
sV\u658e
I8121
sV\u4f15
I8673
sV\u7e1f
I5672
sV\u86a4
I4754
sV\u8ca8
I3262
sV\u502b
I262
sV\u72ac
I976
sV\u562f
I2503
sV\u9931
I6330
sV\u7141
I4347
sV\u634d
I3695
sV\u85ce
I4737
sV\u4ed4
I4195
sV\u9257
I686
sV\u71d6
I7218
sV\u985b
I3923
sV\u77da
I2747
sV\u5b5d
I2031
sV\u7dde
I6601
sV\u8463
I728
sV\u8a67
I5839
sV\u706b
I734
sV\u766f
I5573
sV\u98f0
I8451
sV\u7c73
I1996
sV\u9ef4
I7826
sV\u8afc
I4655
sV\u9081
I4262
sV\u5583
I4644
sV\u9685
I783
sV\u7704
I5247
sV\u5b87
I97
sV\u7d08
I2196
sV\u828d
I2901
sV\u6910
I5848
sV\u8e95
I3427
sV\u6f14
I3352
sV\u9016
I6143
sV\u5518
I6668
sV\u91ab
I1111
sV\u8e2a
I3708
sV\u52ad
I7362
sV\u742e
I5265
sV\u5eb5
I3143
sV\u89bb
I8026
sV\u6c3e
I7646
sV\u9744
I2345
sV\u7bc7
I1952
sV\u61cb
I6057
sV\u67cf
I1839
sV\u8f54
I3997
sV\u53d7
I2302
sV\u80e1
I1317
sV\u6160
I7468
sV\u536c
I6803
sV\u946e
I7942
sV\u5970
I4849
sV\u7ef5
I8484
sV\u5f74
I2701
sV\u8076
I6889
sV\u867a
I4030
sV\u7282
I3526
sV\u9b07
I7457
sV\u5c09
I2859
sV\u810b
I8590
sV\u7e8a
I3507
sV\u8d13
I6818
sV\u4e15
I6903
sV\u7317
I4839
sV\u5096
I6929
sV\u9598
I6839
sV\u569a
I7333
sV\uff1f
I2895
sV\u81a0
I2542
sV\u6523
I5420
sV\u8da8
I1127
sV\u572f
I4844
sV\u79b0
I458
sV\u65b8
I3249
sV\u8a3d
I6829
sV\u6bbc
I3303
sV\u51c0
I8130
sV\u98c6
I2206
sV\u7c49
I8052
sV\u624d
I507
sV\u6851
I251
sV\u8ad2
I684
sV\u4fd4
I8222
sV\u9f5f
I4013
sV\u7cde
I203
sV\u8563
I3120
sV\u54ee
I4621
sV\u99f0
I8605
sV\u7d73
I2249
sV\u6377
I510
sV\u9381
I6169
sV\u7200
I8354
sV\u7e08
I2301
sV\u8d95
I7445
sV\u799d
I8087
sV\u63a1
I2349
sV\u65a5
I5132
sV\u9eb3
I8761
sV\u7932
I6121
sV
I5765
sV\u6336
I7027
sV\u8cbf
I5315
sV\u6f3e
I2625
sV\u9240
I8110
sV\u76c3
I4123
sV\u9444
I2703
sV\u62cb
I1119
sV\u5d4a
I6581
sV\u8a50
I4861
sV\u6ed3
I4101
sV\u8c54
I84
sV\u97d9
I6782
sV\u7658
I4006
sV\u5adb
I8274
sV\u99dd
I3297
sV\u83e1
I3669
sV\u6260
I2169
sV\u85e5
I1110
sV\u71ed
I1758
sV\u976e
I6521
sV\u7df5
I6988
sV\u5c74
I7578
sV\u67f9
I7061
sV\u857a
I2555
sV\u69fd
I3788
sV\u7182
I4536
sV\u5505
I4598
sV\u9807
I7514
sV\u7b86
I2638
sV\u820b
I7430
sV\u7d8a
I8676
sV\u840f
I3670
sV\u5396
I5660
sV\u9698
I5381
sV\u559a
I1948
sV\u989c
I8137
sV\u7c1f
I1308
sV\u5f9e
I236
sV\u6827
I7714
sV\u8ea8
I8495
sV\u912d
I3475
sV\u70ac
I1867
sV\u9b31
I761
sV\u7ab0
I6473
sV\u5e33
I1924
sV\u68bc
I7983
sV\u9bc6
I7807
sV\u5ec8
I4389
sV\u614d
I4892
sV\u89d2
I1866
sV\u9a5b
I1347
sV\u9c5f
I7279
sV\u4f69
I2006
sV\u6dea
I2743
sV\u746f
I4991
sV\u7e73
I3149
sV\u9cf4
I400
sV\u86f8
I3122
sV\u88fc
I7434
sV\u4ffe
I4017
sV\u3002
I13
sV\u7504
I598
sV\uff08
I5763
sV\u8a91
I5912
sV\u7699
I4927
sV\u5718
I189
sV\u591c
I20
sV\u9e1e
I928
sV\u64a5
I1136
sV\u50ad
I5552
sV\u5ab1
I8039
sV\u7832
I8627
sV\u5cb5
I8118
sV\u6236
I1677
sV\u643a
I5773
sV\u8dbf
I6377
sV\u6e3e
I2402
sV\u5a46
I3560
sV\u5c4a
I8079
sV\u65cf
I3213
sV\u96d9
I147
sV\u795c
I2837
sV\u82e1
I5267
sV\u6f68
I5387
sV\u516c
I451
sV\u5b70
I3885
sV\u7cf5
I3749
sV\u66f9
I3576
sV\u847a
I2407
sV\u68fd
I4869
sV\u5201
I3022
sV\u9703
I5680
sV\u7a86
I5442
sV\u668e
I2888
sV\u8f13
I4444
sV\u5296
I7243
sV\u9798
I1741
sV\u7b1b
I1607
sV\u83a0
I4776
sV\u6723
I4398
sV\u85a4
I2405
sV\u8fa8
I3035
sV\u902d
I5123
sV\u71ac
I4610
sV\u552f
I108
sV\u7db4
I530
sV\u67b8
I6248
sV\u69bc
I3577
sV\u7241
I7327
sV\u55c4
I7356
sV\u9ac6
I5284
sV\u9cca
I7830
sV\u604d
I1370
sV\u6a51
I7297
sV\u88d2
I6128
sV\u6c55
I7228
sV\u9157
I5533
sV\u72d6
I2454
sV\u9b5b
I7380
sV\u74da
I4364
sV\u8763
I3990
sV\u4e69
I6659
sV\u736b
I3780
sV\u6cea
I5754
sV\u756f
I8008
sV\u7f73
I5148
sV\u9df4
I5455
sV\u6177
I4712
sV\u6b7b
I660
sV\u5e87
I2608
sV\u878d
I1503
sV\u660c
I2214
sV\u6c10
I4696
sV\u6a14
I8293
sV\u7199
I2912
sV\u5018
I4272
sV\u931a
I1704
sV\u7f9d
I7558
sV\u991e
I4273
sV\u65a1
I2991
sV\u63a5
I1355
sV\u712e
I6397
sV\u5db1
I6315
sV\u5bb5
I635
sV\u6536
I2012
sV\u8cbb
I2390
sV\u633a
I3010
sV\u8abf
I1309
sV\u693e
I8337
sV\u5742
I3588
sV\u62cf
I5043
sV\u8c50
I2460
sV\u68d3
I6115
sV\u8a54
I107
sV\u56d7
I4293
sV\u7058
I2445
sV\u6264
I7898
sV\u77ed
I1143
sV\u566c
I391
sV\u7df1
I4731
sV\u61f9
I4867
sV\u5501
I6060
sV\u9003
I264
sV\u5305
I1448
sV\u9e07
I1138
sV\u7d86
I4631
sV\u840b
I369
sV\u7b8a
I6256
sV\u618e
I2662
sV\u8813
I7371
sV\u6f92
I4995
sV\u9098
I6783
sV\u539a
I881
sV\u7a1f
I4177
sV\u82a4
I6631
sV\u6e27
I8653
sV\u88a8
I8066
sV\u542b
I817
sV\u8139
I6572
sV\u60b8
I6190
sV\u6ebc
I131
sV\u54c0
I1653
sV\u97c2
I5557
sV\u7345
I6472
sV\u7949
I4378
sV\u58c8
I4463
sV\u9bca
I8280
sV\u8fd2
I8634
sV\u6b55
I7823
sV\u5f5d
I4363
sV\u9a5f
I4485
sV\u79de
I4855
sV\u67e2
I5894
sV\u6de6
I8762
sV\u726f
I6826
sV\u5ff2
I7920
sV\u9af4
I3937
sV\u6677
I2786
sV\u80f8
I1058
sV\u8efc
I5913
sV\u9481
I6858
sV\u7500
I8027
sV\u5183
I7343
sV\u9285
I1973
sV\u5f87
I3391
sV\u868d
I5419
sV\u670c
I7657
sV\u8a95
I4590
sV\u6b14
I8457
sV\u7099
I1501
sV\u5118
I2429
sV\u921a
I6399
sV\u981e
I7185
sV\u8622
I3696
sV\u68a9
I5372
sV\u95ab
I2574
sV\u8a2a
I951
sV\u56ad
I6527
sV\u5cb1
I4660
sV\u99b3
I1238
sV\u7e32
I3512
sV\u5ab5
I3466
sV\u6436
I3104
sV\u623a
I6452
sV\u71c3
I4122
sV\u5642
I6289
sV\u5c46
I5902
sV\u65cb
I16
sV\u874c
I7855
sV\u63cf
I2663
sV\u9edd
I4344
sV\u5bdf
I4846
sV\u84e1
I4966
sV\u82e5
I263
sV\u88e9
I7454
sV\u6968
I3598
sV\u906e
I1456
sV\u5d70
I8256
sV\u8476
I7084
sV\u60f9
I914
sV\u4f7c
I7502
sV\u887e
I1931
sV\u5401
I2256
sV\u7682
I3743
sV\u5205
I6586
sV\u9f07
I1802
sV\u7a8a
I4912
sV\u8913
I5377
sV\u7d1b
I1723
sV\u529a
I5370
sV\u9f9c
I1658
sV\u589e
I4251
sV\u552b
I4591
sV\u77ac
I1079
sV\u532f
I6629
sV\u7db0
I2674
sV\u7bb4
I4566
sV9
I5775
sV\u61b8
I7224
sV\u6fbc
I3151
sV\u7441
I3184
sV\u7849
I2971
sV\u80ce
I2950
sV\u8ed2
I1532
sV\u72da
I6849
sV\u756b
I970
sV\u6aea
I3387
sV\u736f
I6198
sV\u50ee
I1820
sV\u9df0
I3679
sV\u6777
I4953
sV\u6d7b
I7808
sV\u6b7f
I3422
sV\u9781
I8445
sV\u7600
I4893
sV\u5283
I3114
sV\u9185
I959
sV\u5c87
I7154
sV\u858d
I7230
sV\u9716
I1969
sV\u7d9d
I8105
sV\u67a1
I6879
sV\u8f26
I2361
sV\u892a
I7129
sV\u90af
I3271
sV\u7d32
I515
sV\u6736
I6772
sV\u88bf
I6684
sV\u6b3e
I797
sV\u9640
I4254
sV\u72c3
I7415
sV\u9044
I8062
sV\u7cc7
I7428
sV\u844c
I7835
sV\u60cf
I7747
sV\u8e50
I7372
sV\u6ad3
I2529
sV\u7258
I4284
sV\u5edb
I4518
sV\u7c5c
I4778
sV\u58df
I1747
sV\u81e5
I1126
sV\u6064
I3706
sV\u936e
I7653
sV\u7ff1
I4228
sV\u5e70
I2295
sV\u9d72
I357
sV\u8776
I1487
sV\u8b7e
I8561
sV\u7f86
I4980
sV\u5b09
I3488
sV\u860b
I3180
sV\u798a
I3760
sV\u638e
I7249
sV\u4f11
I434
sV\u8a13
I3892
sV\u6d92
I8437
sV\u9298
I2756
sV\u7e1b
I3896
sV\u8aa8
I3463
sV\u9935
I4038
sV\u8339
I2940
sV\u4e3b
I1440
sV\u6cbc
I1983
sV\u56c0
I2369
sV\u7145
I8036
sV\u7b49
I2465
sV\u5ac8
I8641
sV\u99ca
I2280
sV\u654d
I5860
sV\u6f51
I3730
sV\u8dd2
I7525
sV\u77d6
I8073
sV\u8263
I6963
sV\u65e2
I2397
sV\u53ee
I4131
sV\u9ef0
I8467
sV\u5df2
I30
sV\u98f4
I6679
sV\u8cfc
I6947
sV\u687f
I8755
sV\u9085
I4394
sV\u7104
I7383
sV\u5d87
I3549
sV\u7b08
I1763
sV\u8e91
I2099
sV\u6914
I7275
sV\u901a
I201
sV\u9a1e
I4998
sV\u66a1
I7456
sV\u8e26
I5469
sV\u97ab
I7876
sV\u91af
I2865
sV\u722e
I8736
sV\u6636
I6665
sV\u89bf
I4436
sV\u6a3e
I5717
sV\u5442
I3498
sV\u7dc7
I4415
sV\u9b48
I3255
sV\u584a
I3725
sV\u6bd3
I7183
sV\u7d5c
I4374
sV\u6760
I5508
sV\u80e5
I2848
sV\u6164
I6792
sV\u5f70
I4157
sV\u9c72
I8669
sV\u78f5
I5385
sV\u5974
I2287
sV\u5005
I6801
sV\u9d07
I4584
sV\u7e86
I4765
sV\u5a09
I5735
sV\u870b
I6557
sV\u4e11
I5882
sV\u6c92
I2379
sV\u9398
I8283
sV\uff1b
I5798
sV\u509a
I7866
sV\u5a9e
I8054
sV\u6d27
I5383
sV\u4ea6
I299
sV\u79b4
I6552
sV\u8239
I953
sV\u8c3d
I6129
sV\u6dbc
I303
sV\u51c4
I5851
sV\u7a49
I2832
sV\u8cd2
I659
sV\u6855
I8291
sV\u76d6
I6908
sV\u5259
I8084
sV\u70da
I6012
sV\u5c5d
I6950
sV\u64e2
I2606
sV\u8d67
I7255
sV\u776b
I1452
sV\u52ee
I8103
sV\u7b73
I7236
sV\u99f4
I7017
sV\u6577
I505
sV\u83f8
I7095
sV\u8dfc
I4898
sV\u5287
I3825
sV\u9589
I1216
sV\u6010
I8367
sV\u6614
I1661
sV\u9916
I8401
sV\u521c
I5072
sV\u8b22
I8659
sV\u6fa5
I4709
sV\u98ab
I6062
sV\u9eaf
I5506
sV\u51b1
I4435
sV\u7332
I8392
sV\u8ab7
I7375
sV\u6936
I6369
sV\u653e
I1032
sV\u5146
I2032
sV\u68cb
I2636
sV\u574a
I1779
sV\u6ecf
I8316
sV\u8654
I2890
sV\u5ad7
I3435
sV\u9dd9
I5401
sV\u50db
I8640
sV\u8fe5
I1606
sV\u85e9
I1206
sV\u5a6c
I5907
sV\u9d6e
I7614
sV\u5674
I3287
sV\u6df9
I1714
sV\u857e
I7749
sV\u9207
I6110
sV\u880b
I6067
sV\u8e0f
I2911
sV\u6d8e
I5354
sV\u6392
I2409
sV\u7a17
I3496
sV\u5996
I1582
sV\u701b
I1798
sV\u929c
I793
sV\u761f
I6649
sV\u88a0
I7106
sV\u6c23
I210
sV\u84a8
I171
sV\u9b2d
I5796
sV\u7aac
I5541
sV\u9131
I4580
sV\u70b0
I4732
sV\u5433
I81
sV\u76b4
I3080
sV\u6cb8
I1291
sV\u62bc
I2557
sV\u7941
I2513
sV\u58c0
I8545
sV\u7f45
I2982
sV\u5ec4
I4625
sV\u91c6
I8030
sV\u8dce
I2290
sV\u6755
I4790
sV\u9a57
I1073
sV\u79d6
I4829
sV\u905b
I7484
sV\u965f
I4124
sV\u75de
I7791
sV\u61e6
I5333
sV\u786b
I3451
sV\u9aec
I7802
sV\u5dee
I271
sV\u7473
I5290
sV\u53f2
I611
sV\u8cf8
I1522
sV\u5d83
I8621
sV\u7508
I7338
sV\u8a8d
I612
sV\u4f8f
I6277
sV\u6110
I6776
sV\u6714
I121
sV\u5d18
I7697
sV\u9e1a
I2217
sV\u68a1
I4375
sV\u8a22
I7087
sV\u6ea5
I4853
sV\u8026
I4299
sV\u64a9
I2236
sV\u862a
I8759
sV\u5aad
I7980
sV\u7c2e
I8687
sV\u7232
I32
sV\u56b5
I5654
sV\u81bb
I4064
sV\u6e3a
I1682
sV\u87bf
I4786
sV\u69cb
I3481
sV\u8b4c
I8554
sV\u8150
I606
sV\u65d3
I6442
sV\u9cd9
I7368
sV\u57df
I1374
sV\u88e1
I5320
sV\u6960
I4496
sV\u6f64
I280
sV\u7aed
I2697
sV\u9c6e
I7141
sV\u70f1
I7886
sV\u62fd
I5367
sV\u5409
I2293
sV\u8513
I1577
sV\u6292
I5915
sV\u5896
I6415
sV\u9d98
I7640
sV\u5e9a
I3099
sV\u771f
I1745
sV\u85a8
I6391
sV\u592b
I756
sV\u9a2d
I8003
sV\u7bac
I5544
sV\u9031
I6516
sV\u5533
I3701
sV\u8c39
I5050
sV\u6db8
I2876
sV\u9ac2
I8381
sV\u7e45
I5207
sV\u7449
I8417
sV\u55c8
I5699
sV\u96ca
I6205
sV\u82d2
I4333
sV\u5c59
I8721
sV\u525d
I3031
sV\u7f6f
I7115
sV\u6b77
I1331
sV\u83fc
I5153
sV\u677f
I1667
sV\u7a00
I1075
sV\u6210
I168
sV\u6414
I1902
sV\u9b16
I5063
sV\u5e18
I4214
sV\u501c
I6306
sV\u971e
I151
sV\u96b3
I3037
sV\u88b7
I4047
sV\u6b36
I7918
sV\u4fb9
I8393
sV\u82bb
I3604
sV\u6d3a
I5374
sV\u84bf
I3026
sV\u673e
I5974
sV\u9a40
I3756
sV\u884c
I287
sV\u4f4e
I66
sV\u52db
I3493
sV\u91dd
I4559
sV\u705c
I8739
sV\u4ee3
I433
sV\u8de5
I8517
sV\u6668
I831
sV\u79ed
I7846
sV\u9172
I1028
sV\u5474
I8048
sV\u61fd
I1912
sV\u5d05
I7202
sV\u7386
I6647
sV\u5709
I6384
sV\u758a
I1718
sV\u6f8e
I6132
sV\u6192
I8533
sV\u721b
I1971
sV\u579e
I8488
sV\u8aa0
I496
sV\u6e23
I6126
sV\u6027
I2377
sV\u86a8
I5122
sV\u992d
I7048
sV\u813d
I8077
sV\u60bc
I5361
sV\u7b41
I6980
sV\u95ca
I414
sV\u8fce
I1098
sV\u6555
I3231
sV\u9857
I6688
sV\u7bd6
I7829
sV\u5f59
I5831
sV\u925b
I3459
sV\u7dda
I1042
sV\u77de
I6893
sV\u8e63
I7797
sV\u69e2
I4882
sV\u7a6b
I4267
sV\u7c6f
I7005
sV\u6877
I3998
sV\u8ef8
I724
sV\u80fc
I4525
sV\u5f83
I4298
sV\u7d04
I1118
sV\u7708
I6259
sV\u888d
I2394
sV\u690c
I6640
sV\u8291
I6048
sV\u6310
I8333
sV\u6514
I6907
sV\u9a16
I4191
sV\u5f18
I1401
sV\u511c
I7407
sV\u8822
I3714
sV\u9bab
I2648
sV\u9daf
I1384
sV\u7e2e
I524
sV\u97b3
I6284
sV\u7032
I2254
sV\u89b7
I5186
sV\u4eb9
I3739
sV\u85bf
I8377
sV\u9d44
I5845
sV\u9748
I1093
sV\u6bcb
I4552
sV\u544a
I1892
sV\u6dcf
I8527
sV\u4e4e
I3228
sV\u8350
I6711
sV\u67d3
I1690
sV\u7f58
I5147
sV\u53db
I4906
sV\u90dd
I8020
sV\u715c
I7875
sV\u55df
I418
sV\u8ae1
I6477
sV\u6b60
I3872
sV\u6d64
I5412
sV\u86e9
I2476
sV\u5370
I1120
sV\u9072
I277
sV\u8a76
I4802
sV\u6ef9
I4715
sV\u8c7a
I4291
sV\u5a01
I1455
sV\u9f03
I6294
sV\u5c05
I5505
sV\u5609
I1981
sV\u748a
I6983
sV\u8d0f
I2136
sV\u8713
I5039
sV\u6092
I4424
sV\u731b
I1324
sV\u919c
I707
sV\u751f
I246
sV\u6f23
I3484
sV\u6127
I2538
sV\u982d
I813
sV\u79ac
I7396
sV\u9435
I1858
sV\u75b4
I6374
sV\u803d
I3270
sV\u5bc0
I8065
sV\u98c2
I5559
sV\u92c6
I8521
sV\u684d
I8722
sV\u6251
I5970
sV\u9957
I1663
sV\u5e59
I6207
sV\u935b
I3750
sV\u76de
I4180
sV\u64ea
I7583
sV\u99ec
I7239
sV\u6977
I4428
sV\u8ff8
I1769
sV\u637b
I5304
sV\u81fc
I2838
sV\u7c00
I7834
sV\u5883
I2746
sV\u5687
I5125
sV\u9189
I1101
sV\u6e0c
I8648
sV\u8591
I3910
sV\u6214
I7690
sV\u5818
I5756
sV\u9b1a
I1368
sV\u911e
I6838
sV\u8526
I2610
sV\u61a9
I3437
sV\u5fad
I3298
sV\u9aaf
I6262
sV\u792e
I6981
sV\u90b3
I7703
sV\u6d36
I4873
sV\u84bb
I7329
sV\u6b3a
I293
sV\u82bf
I8012
sV\u613e
I8240
sV\u9a44
I3941
sV\u5546
I1789
sV\u534a
I471
sV\u8e4c
I5032
sV\u8450
I8076
sV\u99d9
I3692
sV\u97dd
I5694
sV\u52df
I4921
sV\u8de1
I437
sV\u6c60
I375
sV\u6a64
I8061
sV\u6068
I31
sV\u5e6c
I4755
sV\u75f1
I7321
sV\u5470
I7981
sV\u69f9
I6739
sV\u817e
I6906
sV\u9803
I1164
sV\u7586
I2879
sV\u5109
I2459
sV\u4f0d
I3051
sV\u8a0f
I5119
sV\u6792
I6432
sV\u7e17
I8359
sV\u741b
I4563
sV\u5b9a
I841
sV\u969c
I1214
sV\u721f
I5866
sV\u519e
I8011
sV\u8ca0
I1356
sV\u8aa4
I1632
sV\u6627
I3838
sV\u5c2b
I6105
sV\u74b0
I933
sV\u72b4
I7798
sV\u7d41
I7687
sV\u5ac4
I8573
sV\u7149
I4215
sV\u93ca
I7153
sV\u6551
I472
sV\u87d2
I7493
sV\u6355
I3939
sV\u945b
I5528
sV\u7bda
I5356
sV\u925f
I8637
sV\u8863
I353
sV\u8667
I1146
sV\u65e6
I1326
sV\u7c6b
I8657
sV\u63ea
I7526
sV\u9eec
I7613
sV\u59ee
I5511
sV\u88f8
I457
sV\u647b
I4746
sV\u627f
I568
sV\u7d00
I2420
sV\u5983
I2149
sV\u7b04
I5273
sV\u8e8d
I1345
sV\u7899
I6699
sV\u571c
I4766
sV\u901e
I4154
sV\u8e22
I8172
sV\uff5d
I8693
sV\u822a
I2898
sV\u5ead
I1160
sV\u6a3a
I6512
sV\u83bf
I7709
sV\u5e42
I3443
sV\u9b44
I466
sV\u77c7
I6693
sV\u9148
I3582
sV\u6dcb
I1530
sV\u524a
I1712
sV\u6bcf
I417
sV\u8354
I3360
sV\u5fd7
I540
sV\u98d9
I7990
sV\u55db
I7403
sV\u96dd
I6276
sV\u53df
I1210
sV\u8ce1
I6474
sV\u6b64
I275
sV\u6168
I3876
sV\u5f6c
I6158
sV\u9672
I3490
sV\u72f5
I7369
sV\u5374
I242
sV\u68f9
I2473
sV\u807e
I847
sV\u5c01
I125
sV\u7e82
I4138
sV\u9707
I461
sV\u7486
I6142
sV\u5009
I2780
sV\u8d0b
I7225
sV\u4e0d
I101
sV\u8b0f
I4429
sV\u9998
I6268
sV\u5a9a
I1938
sV\u509e
I6519
sV\u8da0
I4870
sV\u4ea2
I5529
sV\u6727
I1766
sV\u81a8
I6634
sV\u5133
I7741
sV\u8839
I2949
sV\u69b8
I8591
sV\u5bc4
I1231
sV\u51c8
I7139
sV\u6e4d
I2562
sV\u88ce
I6773
sV\u6451
I5497
sV\u9f57
I4023
sV\u7cd6
I5898
sV\u7ada
I4936
sV\u64e6
I7177
sV\u62ea
I5993
sV\u7b6f
I2943
sV\u89f8
I654
sV\u657b
I3020
sV\u4e8b
I297
sV\u8d8d
I6542
sV\u6014
I6598
sV\u7b99
I5568
sV\u5a18
I2682
sV\u991a
I7486
sV\u931e
I6847
sV\u6fa1
I426
sV\u69a5
I8623
sV\u8726
I8448
sV\u63a9
I205
sV\u98af
I2824
sV\u7b2e
I6365
sV\u92b3
I3516
sV\u7532
I1225
sV\u51b5
I8157
sV\u8cb7
I1550
sV\u6f36
I5999
sV\u633e
I3506
sV\u7ac3
I6717
sV\u5d42
I6299
sV\u5746
I8674
sV\u6ecb
I1523
sV\u8650
I4848
sV\u62d3
I4627
sV\u5cd7
I8478
sV\u56db
I238
sV\u745c
I4204
sV\u89e5
I3841
sV\ue864
I6867
sV\u83e9
I3587
sV\u5c6c
I328
sV\u9b6e
I6536
sV\u77f1
I7946
sV\u5670
I5353
sV\u5074
I520
sV\u6bf9
I4939
sV\u5f01
I615
sV\u9a03
I3911
sV\u718a
I4370
sV\u6592
I4965
sV\u701f
I1218
sV\u8ea0
I8421
sV\u6a23
I1686
sV\u88a4
I6982
sV\u82a8
I6977
sV\u5e2b
I730
sV\u582f
I640
sV\u76b0
I7281
sV\u5233
I3286
sV\u70b4
I6638
sV\u8b39
I5380
sV\u853d
I2116
sV\u64bc
I1917
sV\u9dc2
I6561
sV\u7945
I6333
sV\u97c6
I2154
sV\u6751
I956
sV\u6155
I581
sV\u9c57
I860
sV\u965b
I2498
sV\u73de
I5496
sV\u8a63
I4760
sV\u67e6
I8530
sV\u7e6b
I46
sV\u9cec
I6643
sV\u786f
I1184
sV\u5bee
I1413
sV\u96f0
I3540
sV\u90f4
I4245
sV\u4ff6
I4987
sV\u8af8
I315
sV\u667b
I5149
sV\u84fc
I1049
sV\u9e81
I4574
sV\u5b83
I5300
sV\u4f8b
I3966
sV\u300a
I5764
sV\u8c8d
I5665
sV\u6d0c
I6146
sV\u8691
I8265
sV\u6710
I7543
sV\u6114
I2092
sV\u9e16
I5978
sV\u7a99
I8390
sV\u921e
I1100
sV\u7a2e
I1129
sV\u56b1
I7712
sV\u7432
I5512
sV\u50b5
I3238
sV\u8db7
I8188
sV\u87bb
I3728
sV\u81bf
I5941
sV\u623e
I3953
sV\u5646
I3044
sV\u9348
I6080
sV\u8154
I7036
sV\u7b58
I8711
sV\u755c
I5535
sV\u51df
I8193
sV\u6f60
I5609
sV\u6368
I3905
sV\u7ced
I5160
sV\u5d6c
I3085
sV\u76f1
I5117
sV\u5770
I2017
sV\u8e76
I1186
sV\u887a
I7689
sV\u827e
I1614
sV\u5e01
I8570
sV\u9b03
I5715
sV\u5805
I649
sV\u7686
I577
sV\u708a
I3258
sV\u890f
I8432
sV\u6a8e
I7082
sV\u6492
I5466
sV\u7d17
I2158
sV\u5e96
I2350
sV\u8fa0
I8277
sV\u6b23
I3380
sV\u89a4
I7174
sV\u83a8
I7870
sV\u9c2d
I4807
sV\u7dac
I1121
sV\u77b0
I2835
sV\u5333
I5355
sV\u9035
I4517
sV\u843d
I874
sV\u65bc
I1293
sV\u7e41
I1588
sV\u96c6
I998
sV\u53c8
I2
sV\u90ca
I954
sV\u6c4d
I5064
sV\u6055
I3591
sV\u78da
I5666
sV\u545d
I8775
sV\u8b63
I7475
sV\u6ce2
I57
sV\u66e6
I1220
sV\u7f6b
I5061
sV\u5aee
I6043
sV\u7373
I7819
sV\u54f2
I3409
sV\u6d77
I736
sV\u4ef6
I6021
sV\u677b
I6182
sV\u617f
I8684
s.